S'3.2'
p1
.S'LALR'
p1
.S'\x0e\xae\xd1\x9e\xdea\xc7E\x8b\xe6\x1f\xc0\xee\xed\xaf\n'
p1
.(dp1
I0
(dp2
S'EXCEPTION'
p3
I-106
sS'PARTIAL'
p4
I-106
sS'DICTIONARY'
p5
I-106
sS'ENUM'
p6
I-106
sS'TYPEDEF'
p7
I-106
sS'LBRACKET'
p8
I1
sS'CALLBACK'
p9
I-106
sS'INTERFACE'
p10
I-106
sS'SCOPE'
p11
I-106
sS'IDENTIFIER'
p12
I-106
sS'$end'
p13
I-2
ssI1
(dp14
S'RBRACKET'
p15
I-111
sS'IDENTIFIER'
p16
I9
sS'COMMA'
p17
I-111
ssI2
(dp18
g3
I22
sg4
I26
sg5
I20
sg6
I21
sg7
I25
sg9
I28
sg10
I29
sg11
I12
sg12
I17
ssI3
(dp19
S'$end'
p20
I0
ssI4
(dp21
g15
I-113
sg17
I32
ssI5
(dp22
g15
I-110
sg17
I-110
ssI6
(dp23
g15
I-108
sg17
I-108
ssI7
(dp24
g15
I-109
sg17
I-109
ssI8
(dp25
g15
I-107
sg17
I-107
ssI9
(dp26
g15
I-211
sg17
I-211
sS'EQUALS'
p27
I33
sS'LPAREN'
p28
I34
ssI10
(dp29
g3
I-8
sg4
I-8
sg5
I-8
sg6
I-8
sg7
I-8
sg8
I-8
sg9
I-8
sg10
I-8
sg11
I-8
sg12
I-8
sg13
I-8
ssI11
(dp30
g3
I-3
sg4
I-3
sg5
I-3
sg6
I-3
sg7
I-3
sg8
I-3
sg9
I-3
sg10
I-3
sg11
I-3
sg12
I-3
sg13
I-3
ssI12
(dp31
S'IDENTIFIER'
p32
I35
ssI13
(dp33
g3
I-5
sg4
I-5
sg5
I-5
sg6
I-5
sg7
I-5
sg8
I-5
sg9
I-5
sg10
I-5
sg11
I-5
sg12
I-5
sg13
I-5
ssI14
(dp34
S'EXCEPTION'
p35
I-205
sS'CONST'
p36
I-205
sS'LBRACKET'
p37
I-205
sS'STATIC'
p38
I-205
sS'QUESTIONMARK'
p39
I-205
sS'SETTER'
p40
I-205
sS'RPAREN'
p41
I-205
sS'SEMICOLON'
p42
I-205
sS'CREATOR'
p43
I-205
sS'ELLIPSIS'
p44
I-205
sS'IDENTIFIER'
p45
I-205
sS'SERIALIZER'
p46
I-205
sS'TYPEDEF'
p47
I-205
sS'GT'
p48
I-205
sS'DICTIONARY'
p49
I-205
sS'ENUM'
p50
I-205
sS'INHERIT'
p51
I-205
sS'LEGACYCALLER'
p52
I-205
sS'GETTER'
p53
I-205
sS'LPAREN'
p54
I-205
sS'IMPLEMENTS'
p55
I-205
sS'LBRACE'
p56
I-205
sS'PARTIAL'
p57
I-205
sS'STRINGIFIER'
p58
I-205
sS'ATTRIBUTE'
p59
I-205
sS'CALLBACK'
p60
I-205
sS'INTERFACE'
p61
I-205
sS'UNRESTRICTED'
p62
I-205
sS'OR'
p63
I-205
sS'DELETER'
p64
I-205
ssI15
(dp65
g3
I-7
sg4
I-7
sg5
I-7
sg6
I-7
sg7
I-7
sg8
I-7
sg9
I-7
sg10
I-7
sg11
I-7
sg12
I-7
sg13
I-7
ssI16
(dp66
g3
I-11
sg4
I-11
sg5
I-11
sg6
I-11
sg7
I-11
sg8
I-11
sg9
I-11
sg10
I-11
sg11
I-11
sg12
I-11
sg13
I-11
ssI17
(dp67
g35
I-210
sg36
I-210
sg37
I-210
sg38
I-210
sg39
I-210
sg40
I-210
sg41
I-210
sg42
I-210
sg43
I-210
sg44
I-210
sS'IDENTIFIER'
p68
I-210
sg46
I-210
sg47
I-210
sg48
I-210
sg49
I-210
sg50
I-210
sg51
I-210
sg52
I-210
sg53
I-210
sS'LPAREN'
p69
I-210
sS'SCOPE'
p70
I36
sg55
I-210
sg56
I-210
sg57
I-210
sg58
I-210
sg59
I-210
sg60
I-210
sg61
I-210
sg62
I-210
sS'OR'
p71
I-210
sg64
I-210
ssI18
(dp72
g3
I-106
sg4
I-106
sg5
I-106
sg6
I-106
sg7
I-106
sg8
I1
sg9
I-106
sg10
I-106
sg11
I-106
sg12
I-106
sg13
I-2
ssI19
(dp73
g3
I-6
sg4
I-6
sg5
I-6
sg6
I-6
sg7
I-6
sg8
I-6
sg9
I-6
sg10
I-6
sg11
I-6
sg12
I-6
sg13
I-6
ssI20
(dp74
S'IDENTIFIER'
p75
I39
ssI21
(dp76
S'IDENTIFIER'
p77
I40
ssI22
(dp78
S'IDENTIFIER'
p79
I41
ssI23
(dp80
g3
I-4
sg4
I-4
sg5
I-4
sg6
I-4
sg7
I-4
sg8
I-4
sg9
I-4
sg10
I-4
sg11
I-4
sg12
I-4
sg13
I-4
ssI24
(dp81
g3
I-9
sg4
I-9
sg5
I-9
sg6
I-9
sg7
I-9
sg8
I-9
sg9
I-9
sg10
I-9
sg11
I-9
sg12
I-9
sg13
I-9
ssI25
(dp82
S'FLOAT'
p83
I61
sS'SHORT'
p84
I42
sS'DOMSTRING'
p85
I59
sS'SEQUENCE'
p86
I52
sS'DOUBLE'
p87
I60
sS'ARRAYBUFFER'
p88
I44
sS'OBJECT'
p89
I45
sS'OCTET'
p90
I53
sS'UNSIGNED'
p91
I46
sS'LONG'
p92
I50
sS'BOOLEAN'
p93
I64
sS'UNRESTRICTED'
p94
I65
sS'LPAREN'
p95
I55
sS'DATE'
p96
I48
sg11
I12
sS'BYTE'
p97
I56
sg12
I17
sS'ANY'
p98
I63
ssI26
(dp99
S'INTERFACE'
p100
I66
ssI27
(dp101
g35
I-206
sg36
I-206
sg37
I-206
sg38
I-206
sg39
I-206
sg40
I-206
sg41
I-206
sg42
I-206
sg43
I-206
sg44
I-206
sg45
I-206
sg46
I-206
sg47
I-206
sg48
I-206
sg49
I-206
sg50
I-206
sg51
I-206
sg52
I-206
sg53
I-206
sg54
I-206
sg55
I-206
sg56
I-206
sg57
I-206
sg58
I-206
sg59
I-206
sg60
I-206
sg61
I-206
sg62
I-206
sg63
I-206
sg64
I-206
ssI28
(dp102
g10
I29
sS'IDENTIFIER'
p103
I70
ssI29
(dp104
S'IDENTIFIER'
p105
I71
ssI30
(dp106
g55
I72
ssI31
(dp107
g15
I73
ssI32
(dp108
g15
I-111
sg16
I9
sg17
I-111
ssI33
(dp109
S'IDENTIFIER'
p110
I76
sS'STRING'
p111
I75
ssI34
(dp112
g83
I-106
sS'RPAREN'
p113
I-73
sg85
I-106
sg86
I-106
sg87
I-106
sg88
I-106
sg89
I-106
sg90
I-106
sg91
I-106
sg92
I-106
sg8
I1
sg84
I-106
sg93
I-106
sg94
I-106
sg95
I-106
sg96
I-106
sg11
I-106
sg97
I-106
sg12
I-106
sS'OPTIONAL'
p114
I-106
sg98
I-106
ssI35
(dp115
g35
I-210
sg36
I-210
sg37
I-210
sg38
I-210
sg39
I-210
sg40
I-210
sg41
I-210
sg42
I-210
sg43
I-210
sg44
I-210
sg68
I-210
sg46
I-210
sg47
I-210
sg48
I-210
sg49
I-210
sg50
I-210
sg51
I-210
sg52
I-210
sg53
I-210
sg69
I-210
sg70
I36
sg55
I-210
sg56
I-210
sg57
I-210
sg58
I-210
sg59
I-210
sg60
I-210
sg61
I-210
sg62
I-210
sg71
I-210
sg64
I-210
ssI36
(dp116
S'IDENTIFIER'
p117
I81
ssI37
(dp118
g35
I-208
sg36
I-208
sg37
I-208
sg38
I-208
sg39
I-208
sg40
I-208
sg41
I-208
sg42
I-208
sg43
I-208
sg44
I-208
sS'IDENTIFIER'
p119
I-208
sg46
I-208
sg47
I-208
sg48
I-208
sg49
I-208
sg50
I-208
sg51
I-208
sg52
I-208
sg53
I-208
sg54
I-208
sg55
I-208
sg56
I-208
sg57
I-208
sg58
I-208
sg59
I-208
sg60
I-208
sg61
I-208
sg62
I-208
sg63
I-208
sg64
I-208
ssI38
(dp120
g13
I-1
ssI39
(dp121
g56
I-18
sS'COLON'
p122
I83
ssI40
(dp123
S'LBRACE'
p124
I84
ssI41
(dp125
S'LBRACE'
p126
I-18
sg122
I83
ssI42
(dp127
g35
I-192
sg36
I-192
sg37
I-192
sg38
I-192
sg39
I-192
sg40
I-192
sg41
I-192
sg43
I-192
sg44
I-192
sg68
I-192
sg46
I-192
sg47
I-192
sg48
I-192
sg49
I-192
sg50
I-192
sg51
I-192
sg52
I-192
sg53
I-192
sg54
I-192
sS'IMPLEMENTS'
p128
I-192
sg57
I-192
sg58
I-192
sg59
I-192
sg60
I-192
sg61
I-192
sg62
I-192
sg71
I-192
sg64
I-192
ssI43
(dp129
g35
I-198
sg36
I-198
sg37
I86
sg38
I-198
sg39
I88
sg40
I-198
sg41
I-198
sg43
I-198
sg44
I-198
sg68
I-198
sg46
I-198
sg47
I-198
sg48
I-198
sg49
I-198
sg50
I-198
sg51
I-198
sg52
I-198
sg53
I-198
sg69
I-198
sg128
I-198
sg57
I-198
sg58
I-198
sg59
I-198
sg60
I-198
sg61
I-198
sg62
I-198
sg71
I-198
sg64
I-198
ssI44
(dp130
g35
I-198
sg36
I-198
sg37
I86
sg38
I-198
sg39
I88
sg40
I-198
sg41
I-198
sg43
I-198
sg44
I-198
sg68
I-198
sg46
I-198
sg47
I-198
sg48
I-198
sg49
I-198
sg50
I-198
sg51
I-198
sg52
I-198
sg53
I-198
sg69
I-198
sg128
I-198
sg57
I-198
sg58
I-198
sg59
I-198
sg60
I-198
sg61
I-198
sg62
I-198
sg71
I-198
sg64
I-198
ssI45
(dp131
g35
I-198
sg36
I-198
sg37
I86
sg38
I-198
sg39
I88
sg40
I-198
sg41
I-198
sg43
I-198
sg44
I-198
sg68
I-198
sg46
I-198
sg47
I-198
sg48
I-198
sg49
I-198
sg50
I-198
sg51
I-198
sg52
I-198
sg53
I-198
sg69
I-198
sg128
I-198
sg57
I-198
sg58
I-198
sg59
I-198
sg60
I-198
sg61
I-198
sg62
I-198
sg71
I-198
sg64
I-198
ssI46
(dp132
g84
I42
sg92
I50
ssI47
(dp133
g35
I-162
sg36
I-162
sg38
I-162
sg40
I-162
sg43
I-162
sg44
I-162
sS'IDENTIFIER'
p134
I-162
sg46
I-162
sg47
I-162
sg48
I-162
sg49
I-162
sg50
I-162
sg51
I-162
sg52
I-162
sg53
I-162
sg54
I-162
sg128
I-162
sg57
I-162
sg58
I-162
sg59
I-162
sg60
I-162
sg61
I-162
sg62
I-162
sg64
I-162
ssI48
(dp135
g35
I-198
sg36
I-198
sg37
I86
sg38
I-198
sg39
I88
sg40
I-198
sg41
I-198
sg43
I-198
sg44
I-198
sg68
I-198
sg46
I-198
sg47
I-198
sg48
I-198
sg49
I-198
sg50
I-198
sg51
I-198
sg52
I-198
sg53
I-198
sg69
I-198
sg128
I-198
sg57
I-198
sg58
I-198
sg59
I-198
sg60
I-198
sg61
I-198
sg62
I-198
sg71
I-198
sg64
I-198
ssI49
(dp136
g68
I93
ssI50
(dp137
g35
I-195
sg36
I-195
sg37
I-195
sg38
I-195
sg39
I-195
sg40
I-195
sg41
I-195
sg43
I-195
sS'LONG'
p138
I95
sg44
I-195
sg68
I-195
sg46
I-195
sg47
I-195
sg48
I-195
sg49
I-195
sg50
I-195
sg51
I-195
sg52
I-195
sg53
I-195
sg69
I-195
sg128
I-195
sg57
I-195
sg58
I-195
sg59
I-195
sg60
I-195
sg61
I-195
sg62
I-195
sg71
I-195
sg64
I-195
ssI51
(dp139
g35
I-164
sg36
I-164
sg38
I-164
sg40
I-164
sg43
I-164
sg44
I-164
sg45
I-164
sg46
I-164
sg47
I-164
sg48
I-164
sg49
I-164
sg50
I-164
sg51
I-164
sg52
I-164
sg53
I-164
sg69
I-164
sg128
I-164
sg57
I-164
sg58
I-164
sg59
I-164
sg60
I-164
sg61
I-164
sg62
I-164
sg64
I-164
ssI52
(dp140
S'LT'
p141
I96
ssI53
(dp142
g35
I-184
sg36
I-184
sg37
I-184
sg38
I-184
sg39
I-184
sg40
I-184
sg41
I-184
sg43
I-184
sg44
I-184
sg68
I-184
sg46
I-184
sg47
I-184
sg48
I-184
sg49
I-184
sg50
I-184
sg51
I-184
sg52
I-184
sg53
I-184
sg69
I-184
sg128
I-184
sg57
I-184
sg58
I-184
sg59
I-184
sg60
I-184
sg61
I-184
sg62
I-184
sg63
I-184
sg64
I-184
ssI54
(dp143
g35
I-191
sg36
I-191
sg37
I-191
sg38
I-191
sg39
I-191
sg40
I-191
sg41
I-191
sg43
I-191
sg44
I-191
sg45
I-191
sg46
I-191
sg47
I-191
sg48
I-191
sg49
I-191
sg50
I-191
sg51
I-191
sg52
I-191
sg53
I-191
sg69
I-191
sg128
I-191
sg57
I-191
sg58
I-191
sg59
I-191
sg60
I-191
sg61
I-191
sg62
I-191
sg63
I-191
sg64
I-191
ssI55
(dp144
g83
I61
sg84
I42
sg85
I59
sg86
I52
sg87
I60
sg88
I44
sg89
I45
sg90
I53
sg91
I46
sg92
I50
sg93
I64
sg94
I65
sg95
I55
sg96
I48
sg11
I12
sg97
I56
sg12
I17
sS'ANY'
p145
I101
ssI56
(dp146
g35
I-183
sg36
I-183
sg37
I-183
sg38
I-183
sg39
I-183
sg40
I-183
sg41
I-183
sg43
I-183
sg44
I-183
sg68
I-183
sg46
I-183
sg47
I-183
sg48
I-183
sg49
I-183
sg50
I-183
sg51
I-183
sg52
I-183
sg53
I-183
sg69
I-183
sg128
I-183
sg57
I-183
sg58
I-183
sg59
I-183
sg60
I-183
sg61
I-183
sg62
I-183
sg63
I-183
sg64
I-183
ssI57
(dp147
g35
I-198
sg36
I-198
sg37
I86
sg38
I-198
sg39
I88
sg40
I-198
sg43
I-198
sg44
I-198
sg68
I-198
sg46
I-198
sg47
I-198
sg48
I-198
sg49
I-198
sg50
I-198
sg51
I-198
sg52
I-198
sg53
I-198
sg69
I-198
sg128
I-198
sg57
I-198
sg58
I-198
sg59
I-198
sg60
I-198
sg61
I-198
sg62
I-198
sg64
I-198
ssI58
(dp148
g35
I-198
sg36
I-198
sg37
I86
sg38
I-198
sg39
I88
sg40
I-198
sg41
I-198
sg43
I-198
sg44
I-198
sg68
I-198
sg46
I-198
sg47
I-198
sg48
I-198
sg49
I-198
sg50
I-198
sg51
I-198
sg52
I-198
sg53
I-198
sg69
I-198
sg128
I-198
sg57
I-198
sg58
I-198
sg59
I-198
sg60
I-198
sg61
I-198
sg62
I-198
sg71
I-198
sg64
I-198
ssI59
(dp149
g35
I-189
sg36
I-189
sg37
I-189
sg38
I-189
sg39
I-189
sg40
I-189
sg41
I-189
sg43
I-189
sg44
I-189
sg68
I-189
sg46
I-189
sg47
I-189
sg48
I-189
sg49
I-189
sg50
I-189
sg51
I-189
sg52
I-189
sg53
I-189
sg69
I-189
sg128
I-189
sg57
I-189
sg58
I-189
sg59
I-189
sg60
I-189
sg61
I-189
sg62
I-189
sg63
I-189
sg64
I-189
ssI60
(dp150
g35
I-187
sg36
I-187
sg37
I-187
sg38
I-187
sg39
I-187
sg40
I-187
sg41
I-187
sg43
I-187
sg44
I-187
sg68
I-187
sg46
I-187
sg47
I-187
sg48
I-187
sg49
I-187
sg50
I-187
sg51
I-187
sg52
I-187
sg53
I-187
sg69
I-187
sg128
I-187
sg57
I-187
sg58
I-187
sg59
I-187
sg60
I-187
sg61
I-187
sg62
I-187
sg63
I-187
sg64
I-187
ssI61
(dp151
g35
I-185
sg36
I-185
sg37
I-185
sg38
I-185
sg39
I-185
sg40
I-185
sg41
I-185
sg43
I-185
sg44
I-185
sg68
I-185
sg46
I-185
sg47
I-185
sg48
I-185
sg49
I-185
sg50
I-185
sg51
I-185
sg52
I-185
sg53
I-185
sg69
I-185
sg128
I-185
sg57
I-185
sg58
I-185
sg59
I-185
sg60
I-185
sg61
I-185
sg62
I-185
sg63
I-185
sg64
I-185
ssI62
(dp152
g35
I-181
sg36
I-181
sg37
I-181
sg38
I-181
sg39
I-181
sg40
I-181
sg41
I-181
sg43
I-181
sg44
I-181
sg68
I-181
sg46
I-181
sg47
I-181
sg48
I-181
sg49
I-181
sg50
I-181
sg51
I-181
sg52
I-181
sg53
I-181
sg69
I-181
sg128
I-181
sg57
I-181
sg58
I-181
sg59
I-181
sg60
I-181
sg61
I-181
sg62
I-181
sg63
I-181
sg64
I-181
ssI63
(dp153
g35
I-200
sg36
I-200
sS'LBRACKET'
p154
I104
sg38
I-200
sg40
I-200
sg43
I-200
sg44
I-200
sg68
I-200
sg46
I-200
sg47
I-200
sg48
I-200
sg49
I-200
sg50
I-200
sg51
I-200
sg52
I-200
sg53
I-200
sg69
I-200
sg128
I-200
sg57
I-200
sg58
I-200
sg59
I-200
sg60
I-200
sg61
I-200
sg62
I-200
sg64
I-200
ssI64
(dp155
g35
I-182
sg36
I-182
sg37
I-182
sg38
I-182
sg39
I-182
sg40
I-182
sg41
I-182
sg43
I-182
sg44
I-182
sg68
I-182
sg46
I-182
sg47
I-182
sg48
I-182
sg49
I-182
sg50
I-182
sg51
I-182
sg52
I-182
sg53
I-182
sg69
I-182
sg128
I-182
sg57
I-182
sg58
I-182
sg59
I-182
sg60
I-182
sg61
I-182
sg62
I-182
sg63
I-182
sg64
I-182
ssI65
(dp156
S'DOUBLE'
p157
I106
sS'FLOAT'
p158
I107
ssI66
(dp159
S'IDENTIFIER'
p160
I108
ssI67
(dp161
g3
I-10
sg4
I-10
sg5
I-10
sg6
I-10
sg7
I-10
sg8
I-10
sg9
I-10
sg10
I-10
sg11
I-10
sg12
I-10
sg13
I-10
ssI68
(dp162
g3
I-12
sg4
I-12
sg5
I-12
sg6
I-12
sg7
I-12
sg8
I-12
sg9
I-12
sg10
I-12
sg11
I-12
sg12
I-12
sg13
I-12
ssI69
(dp163
g3
I-13
sg4
I-13
sg5
I-13
sg6
I-13
sg7
I-13
sg8
I-13
sg9
I-13
sg10
I-13
sg11
I-13
sg12
I-13
sg13
I-13
ssI70
(dp164
S'EQUALS'
p165
I109
ssI71
(dp166
S'LBRACE'
p167
I-18
sg122
I83
sS'SEMICOLON'
p168
I110
ssI72
(dp169
g11
I12
sg12
I17
ssI73
(dp170
g3
I-105
sg84
I-105
sS'CONST'
p171
I-105
sg88
I-105
sg89
I-105
sS'STATIC'
p172
I-105
sg96
I-105
sS'SETTER'
p173
I-105
sg85
I-105
sS'CREATOR'
p174
I-105
sg91
I-105
sg92
I-105
sS'READONLY'
p175
I-105
sg12
I-105
sS'VOID'
p176
I-105
sg7
I-105
sg5
I-105
sg86
I-105
sg6
I-105
sg90
I-105
sS'INHERIT'
p177
I-105
sS'LEGACYCALLER'
p178
I-105
sS'GETTER'
p179
I-105
sg95
I-105
sg11
I-105
sg97
I-105
sg114
I-105
sg4
I-105
sS'STRINGIFIER'
p180
I-105
sg87
I-105
sg83
I-105
sg9
I-105
sg93
I-105
sS'ATTRIBUTE'
p181
I-105
sg10
I-105
sg94
I-105
sg98
I-105
sS'DELETER'
p182
I-105
ssI74
(dp183
g15
I-113
sg17
I32
ssI75
(dp184
g15
I-213
sg17
I-213
ssI76
(dp185
g15
I-214
sg17
I-214
sS'LPAREN'
p186
I114
ssI77
(dp187
g113
I115
ssI78
(dp188
g113
I-75
sS'COMMA'
p189
I116
ssI79
(dp190
g83
I-99
sg84
I-99
sg85
I-99
sg86
I-99
sg87
I-99
sg88
I-99
sg89
I-99
sg90
I-99
sg91
I-99
sg92
I-99
sg93
I-99
sg94
I-99
sg95
I-99
sg96
I-99
sg11
I-99
sg97
I-99
sg12
I-99
sg114
I118
sg98
I-99
ssI80
(dp191
g35
I-207
sg36
I-207
sg37
I-207
sg38
I-207
sg39
I-207
sg40
I-207
sg41
I-207
sg42
I-207
sg43
I-207
sg44
I-207
sS'IDENTIFIER'
p192
I-207
sg46
I-207
sg47
I-207
sg48
I-207
sg49
I-207
sg50
I-207
sg51
I-207
sg52
I-207
sg53
I-207
sg69
I-207
sg128
I-207
sg56
I-207
sg57
I-207
sg58
I-207
sg59
I-207
sg60
I-207
sg61
I-207
sg62
I-207
sg71
I-207
sg64
I-207
ssI81
(dp193
g35
I-210
sg36
I-210
sg37
I-210
sg38
I-210
sg39
I-210
sg40
I-210
sg41
I-210
sg42
I-210
sg43
I-210
sg44
I-210
sg68
I-210
sg46
I-210
sg47
I-210
sg48
I-210
sg49
I-210
sg50
I-210
sg51
I-210
sg52
I-210
sg53
I-210
sg69
I-210
sg70
I36
sg55
I-210
sg56
I-210
sg57
I-210
sg58
I-210
sg59
I-210
sg60
I-210
sg61
I-210
sg62
I-210
sg71
I-210
sg64
I-210
ssI82
(dp194
g56
I121
ssI83
(dp195
g11
I12
sg12
I17
ssI84
(dp196
S'STRING'
p197
I124
ssI85
(dp198
g126
I125
ssI86
(dp199
S'RBRACKET'
p200
I126
ssI87
(dp201
g35
I-173
sg36
I-173
sg38
I-173
sg40
I-173
sg41
I-173
sg43
I-173
sg44
I-173
sg134
I-173
sg46
I-173
sg47
I-173
sg48
I-173
sg49
I-173
sg50
I-173
sg51
I-173
sg52
I-173
sg53
I-173
sg69
I-173
sg128
I-173
sg57
I-173
sg58
I-173
sg59
I-173
sg60
I-173
sg61
I-173
sg62
I-173
sg63
I-173
sg64
I-173
ssI88
(dp202
g35
I-200
sg36
I-200
sg154
I104
sg38
I-200
sg40
I-200
sg41
I-200
sg43
I-200
sg44
I-200
sg68
I-200
sg46
I-200
sg47
I-200
sg48
I-200
sg49
I-200
sg50
I-200
sg51
I-200
sg52
I-200
sg53
I-200
sg69
I-200
sg128
I-200
sg57
I-200
sg58
I-200
sg59
I-200
sg60
I-200
sg61
I-200
sg62
I-200
sg71
I-200
sg64
I-200
ssI89
(dp203
g35
I-174
sg36
I-174
sg38
I-174
sg40
I-174
sg41
I-174
sg43
I-174
sg44
I-174
sg134
I-174
sg46
I-174
sg47
I-174
sg48
I-174
sg49
I-174
sg50
I-174
sg51
I-174
sg52
I-174
sg53
I-174
sg69
I-174
sg128
I-174
sg57
I-174
sg58
I-174
sg59
I-174
sg60
I-174
sg61
I-174
sg62
I-174
sg63
I-174
sg64
I-174
ssI90
(dp204
g35
I-175
sg36
I-175
sg38
I-175
sg40
I-175
sg41
I-175
sg43
I-175
sg44
I-175
sg134
I-175
sg46
I-175
sg47
I-175
sg48
I-175
sg49
I-175
sg50
I-175
sg51
I-175
sg52
I-175
sg53
I-175
sg69
I-175
sg128
I-175
sg57
I-175
sg58
I-175
sg59
I-175
sg60
I-175
sg61
I-175
sg62
I-175
sg63
I-175
sg64
I-175
ssI91
(dp205
g35
I-190
sg36
I-190
sg37
I-190
sg38
I-190
sg39
I-190
sg40
I-190
sg41
I-190
sg43
I-190
sg44
I-190
sg45
I-190
sg46
I-190
sg47
I-190
sg48
I-190
sg49
I-190
sg50
I-190
sg51
I-190
sg52
I-190
sg53
I-190
sg69
I-190
sg128
I-190
sg57
I-190
sg58
I-190
sg59
I-190
sg60
I-190
sg61
I-190
sg62
I-190
sg63
I-190
sg64
I-190
ssI92
(dp206
g35
I-178
sg36
I-178
sg38
I-178
sg40
I-178
sg41
I-178
sg43
I-178
sg44
I-178
sg134
I-178
sg46
I-178
sg47
I-178
sg48
I-178
sg49
I-178
sg50
I-178
sg51
I-178
sg52
I-178
sg53
I-178
sg69
I-178
sg128
I-178
sg57
I-178
sg58
I-178
sg59
I-178
sg60
I-178
sg61
I-178
sg62
I-178
sg63
I-178
sg64
I-178
ssI93
(dp207
S'SEMICOLON'
p208
I128
ssI94
(dp209
g35
I-193
sg36
I-193
sg37
I-193
sg38
I-193
sg39
I-193
sg40
I-193
sg41
I-193
sg43
I-193
sg44
I-193
sg68
I-193
sg46
I-193
sg47
I-193
sg48
I-193
sg49
I-193
sg50
I-193
sg51
I-193
sg52
I-193
sg53
I-193
sg54
I-193
sg128
I-193
sg57
I-193
sg58
I-193
sg59
I-193
sg60
I-193
sg61
I-193
sg62
I-193
sg71
I-193
sg64
I-193
ssI95
(dp210
g35
I-194
sg36
I-194
sg37
I-194
sg38
I-194
sg39
I-194
sg40
I-194
sg41
I-194
sg43
I-194
sg44
I-194
sg68
I-194
sg46
I-194
sg47
I-194
sg48
I-194
sg49
I-194
sg50
I-194
sg51
I-194
sg52
I-194
sg53
I-194
sg69
I-194
sg128
I-194
sg57
I-194
sg58
I-194
sg59
I-194
sg60
I-194
sg61
I-194
sg62
I-194
sg71
I-194
sg64
I-194
ssI96
(dp211
g83
I61
sg84
I42
sg85
I59
sg86
I52
sg87
I60
sg88
I44
sg89
I45
sg90
I53
sg91
I46
sg92
I50
sg93
I64
sg94
I65
sg95
I55
sg96
I48
sg11
I12
sg97
I56
sg12
I17
sg98
I63
ssI97
(dp212
g37
I86
sg39
I88
sg41
I-198
sg71
I-198
ssI98
(dp213
g71
I131
ssI99
(dp214
g41
I-167
sg63
I-167
ssI100
(dp215
g37
I86
sg39
I88
sg41
I-198
sg71
I-198
ssI101
(dp216
S'LBRACKET'
p217
I133
ssI102
(dp218
g35
I-163
sg36
I-163
sg38
I-163
sg40
I-163
sg43
I-163
sg44
I-163
sg134
I-163
sg46
I-163
sg47
I-163
sg48
I-163
sg49
I-163
sg50
I-163
sg51
I-163
sg52
I-163
sg53
I-163
sg54
I-163
sg128
I-163
sg57
I-163
sg58
I-163
sg59
I-163
sg60
I-163
sg61
I-163
sg62
I-163
sg64
I-163
ssI103
(dp219
g35
I-177
sg36
I-177
sg38
I-177
sg40
I-177
sg41
I-177
sg43
I-177
sg44
I-177
sg134
I-177
sg46
I-177
sg47
I-177
sg48
I-177
sg49
I-177
sg50
I-177
sg51
I-177
sg52
I-177
sg53
I-177
sg69
I-177
sg128
I-177
sg57
I-177
sg58
I-177
sg59
I-177
sg60
I-177
sg61
I-177
sg62
I-177
sg63
I-177
sg64
I-177
ssI104
(dp220
S'RBRACKET'
p221
I134
ssI105
(dp222
g35
I-165
sg36
I-165
sg38
I-165
sg40
I-165
sg43
I-165
sg44
I-165
sg45
I-165
sg46
I-165
sg47
I-165
sg48
I-165
sg49
I-165
sg50
I-165
sg51
I-165
sg52
I-165
sg53
I-165
sg69
I-165
sg128
I-165
sg57
I-165
sg58
I-165
sg59
I-165
sg60
I-165
sg61
I-165
sg62
I-165
sg64
I-165
ssI106
(dp223
g35
I-188
sg36
I-188
sg37
I-188
sg38
I-188
sg39
I-188
sg40
I-188
sg41
I-188
sg43
I-188
sg44
I-188
sg68
I-188
sg46
I-188
sg47
I-188
sg48
I-188
sg49
I-188
sg50
I-188
sg51
I-188
sg52
I-188
sg53
I-188
sg69
I-188
sg128
I-188
sg57
I-188
sg58
I-188
sg59
I-188
sg60
I-188
sg61
I-188
sg62
I-188
sg63
I-188
sg64
I-188
ssI107
(dp224
g35
I-186
sg36
I-186
sg37
I-186
sg38
I-186
sg39
I-186
sg40
I-186
sg41
I-186
sg43
I-186
sg44
I-186
sg68
I-186
sg46
I-186
sg47
I-186
sg48
I-186
sg49
I-186
sg50
I-186
sg51
I-186
sg52
I-186
sg53
I-186
sg69
I-186
sg128
I-186
sg57
I-186
sg58
I-186
sg59
I-186
sg60
I-186
sg61
I-186
sg62
I-186
sg63
I-186
sg64
I-186
ssI108
(dp225
S'LBRACE'
p226
I135
ssI109
(dp227
g83
I61
sg84
I42
sg85
I59
sg86
I52
sg87
I60
sg88
I44
sg89
I45
sg90
I53
sg91
I46
sg92
I50
sg98
I63
sg93
I64
sg94
I65
sg95
I55
sg96
I48
sg11
I12
sg97
I56
sg12
I17
sg176
I136
ssI110
(dp228
g3
I-15
sg4
I-15
sg5
I-15
sg6
I-15
sg7
I-15
sg8
I-15
sg9
I-15
sg10
I-15
sg11
I-15
sg12
I-15
sg13
I-15
ssI111
(dp229
g167
I139
ssI112
(dp230
g42
I140
ssI113
(dp231
g15
I-112
ssI114
(dp232
g83
I-106
sS'RPAREN'
p233
I-73
sg85
I-106
sg86
I-106
sg87
I-106
sg88
I-106
sg89
I-106
sg90
I-106
sg91
I-106
sg92
I-106
sg8
I1
sg84
I-106
sg93
I-106
sg94
I-106
sg95
I-106
sg96
I-106
sg11
I-106
sg97
I-106
sg12
I-106
sg114
I-106
sg98
I-106
ssI115
(dp234
g15
I-212
sg17
I-212
ssI116
(dp235
g83
I-106
sg84
I-106
sg85
I-106
sg86
I-106
sg87
I-106
sg88
I-106
sg89
I-106
sg90
I-106
sg91
I-106
sg92
I-106
sg8
I1
sg93
I-106
sg94
I-106
sg95
I-106
sg96
I-106
sg11
I-106
sg97
I-106
sg12
I-106
sg114
I-106
sg98
I-106
ssI117
(dp236
S'RPAREN'
p237
I-72
ssI118
(dp238
g83
I-98
sg84
I-98
sg85
I-98
sg86
I-98
sg87
I-98
sg88
I-98
sg89
I-98
sg90
I-98
sg91
I-98
sg92
I-98
sg93
I-98
sg94
I-98
sg95
I-98
sg96
I-98
sg11
I-98
sg97
I-98
sg12
I-98
sg98
I-98
ssI119
(dp239
g83
I61
sg84
I42
sg85
I59
sg86
I52
sg87
I60
sg88
I44
sg89
I45
sg90
I53
sg91
I46
sg92
I50
sg93
I64
sg94
I65
sg95
I55
sg96
I48
sg11
I12
sg97
I56
sg12
I17
sg98
I63
ssI120
(dp240
g35
I-209
sg36
I-209
sg37
I-209
sg38
I-209
sg39
I-209
sg40
I-209
sg41
I-209
sg42
I-209
sg43
I-209
sg44
I-209
sg68
I-209
sg46
I-209
sg47
I-209
sg48
I-209
sg49
I-209
sg50
I-209
sg51
I-209
sg52
I-209
sg53
I-209
sg69
I-209
sg55
I-209
sg56
I-209
sg57
I-209
sg58
I-209
sg59
I-209
sg60
I-209
sg61
I-209
sg62
I-209
sg71
I-209
sg64
I-209
ssI121
(dp241
g83
I-106
sg84
I-106
sS'RBRACE'
p242
I-25
sg85
I-106
sg86
I-106
sg87
I-106
sg88
I-106
sg89
I-106
sg90
I-106
sg91
I-106
sg92
I-106
sg8
I1
sg93
I-106
sg94
I-106
sg95
I-106
sg96
I-106
sg11
I-106
sg97
I-106
sg12
I-106
sg98
I-106
ssI122
(dp243
g56
I-17
ssI123
(dp244
S'RBRACE'
p245
I146
ssI124
(dp246
S'COMMA'
p247
I148
sg245
I-33
ssI125
(dp248
g83
I-106
sg171
I-106
sS'RBRACE'
p249
I-36
sg85
I-106
sg86
I-106
sg87
I-106
sg88
I-106
sg89
I-106
sg90
I-106
sg91
I-106
sg92
I-106
sg8
I1
sg84
I-106
sg93
I-106
sg94
I-106
sg95
I-106
sg96
I-106
sg11
I-106
sg97
I-106
sg12
I-106
sg98
I-106
ssI126
(dp250
g35
I-198
sg36
I-198
sg37
I86
sg38
I-198
sg39
I88
sg40
I-198
sg41
I-198
sg43
I-198
sg44
I-198
sg68
I-198
sg46
I-198
sg47
I-198
sg48
I-198
sg49
I-198
sg50
I-198
sg51
I-198
sg52
I-198
sg53
I-198
sg69
I-198
sg128
I-198
sg57
I-198
sg58
I-198
sg59
I-198
sg60
I-198
sg61
I-198
sg62
I-198
sg71
I-198
sg64
I-198
ssI127
(dp251
g35
I-197
sg36
I-197
sg38
I-197
sg40
I-197
sg41
I-197
sg43
I-197
sg44
I-197
sg68
I-197
sg46
I-197
sg47
I-197
sg48
I-197
sg49
I-197
sg50
I-197
sg51
I-197
sg52
I-197
sg53
I-197
sg69
I-197
sg128
I-197
sg57
I-197
sg58
I-197
sg59
I-197
sg60
I-197
sg61
I-197
sg62
I-197
sg71
I-197
sg64
I-197
ssI128
(dp252
g3
I-37
sg4
I-37
sg5
I-37
sg6
I-37
sg7
I-37
sg8
I-37
sg9
I-37
sg10
I-37
sg11
I-37
sg12
I-37
sg13
I-37
ssI129
(dp253
g48
I152
ssI130
(dp254
g41
I-170
sg63
I-170
ssI131
(dp255
g83
I61
sg84
I42
sg85
I59
sg86
I52
sg87
I60
sg88
I44
sg89
I45
sg90
I53
sg91
I46
sg92
I50
sg93
I64
sg94
I65
sg95
I55
sg96
I48
sg11
I12
sg97
I56
sg12
I17
sg145
I101
ssI132
(dp256
g41
I-169
sg63
I-169
ssI133
(dp257
S'RBRACKET'
p258
I154
ssI134
(dp259
g35
I-198
sg36
I-198
sg37
I86
sg38
I-198
sg39
I88
sg40
I-198
sg41
I-198
sg43
I-198
sg44
I-198
sg68
I-198
sg46
I-198
sg47
I-198
sg48
I-198
sg49
I-198
sg50
I-198
sg51
I-198
sg52
I-198
sg53
I-198
sg69
I-198
sg128
I-198
sg57
I-198
sg58
I-198
sg59
I-198
sg60
I-198
sg61
I-198
sg62
I-198
sg71
I-198
sg64
I-198
ssI135
(dp260
g84
I-106
sg171
I-106
sg88
I-106
sg89
I-106
sg8
I1
sg172
I-106
sg96
I-106
sg173
I-106
sg85
I-106
sg174
I-106
sg91
I-106
sg92
I-106
sg175
I-106
sg12
I-106
sg176
I-106
sS'RBRACE'
p261
I-20
sg86
I-106
sg90
I-106
sg177
I-106
sg178
I-106
sg179
I-106
sg95
I-106
sg11
I-106
sg97
I-106
sg180
I-106
sg181
I-106
sg83
I-106
sg93
I-106
sg87
I-106
sg94
I-106
sg98
I-106
sg182
I-106
ssI136
(dp262
S'IDENTIFIER'
p263
I-204
sg54
I-204
ssI137
(dp264
g263
I-203
sg54
I-203
ssI138
(dp265
g69
I158
ssI139
(dp266
g84
I-106
sg171
I-106
sg88
I-106
sg89
I-106
sg8
I1
sg172
I-106
sg96
I-106
sg173
I-106
sg85
I-106
sg174
I-106
sg91
I-106
sg92
I-106
sg175
I-106
sg12
I-106
sg176
I-106
sS'RBRACE'
p267
I-20
sg86
I-106
sg90
I-106
sg177
I-106
sg178
I-106
sg179
I-106
sg95
I-106
sg11
I-106
sg97
I-106
sg180
I-106
sg181
I-106
sg83
I-106
sg93
I-106
sg87
I-106
sg94
I-106
sg98
I-106
sg182
I-106
ssI140
(dp268
g3
I-38
sg4
I-38
sg5
I-38
sg6
I-38
sg7
I-38
sg8
I-38
sg9
I-38
sg10
I-38
sg11
I-38
sg12
I-38
sg13
I-38
ssI141
(dp269
g233
I160
ssI142
(dp270
g113
I-75
sg189
I116
ssI143
(dp271
g35
I-101
sg36
I-101
sg38
I-101
sg40
I-101
sg43
I-101
sg44
I162
sg192
I-101
sg46
I-101
sg47
I-101
sg49
I-101
sg50
I-101
sg51
I-101
sg52
I-101
sg53
I-101
sg128
I-101
sg57
I-101
sg58
I-101
sg59
I-101
sg60
I-101
sg61
I-101
sg62
I-101
sg64
I-101
ssI144
(dp272
g242
I164
ssI145
(dp273
g83
I61
sg84
I42
sg85
I59
sg86
I52
sg87
I60
sg88
I44
sg89
I45
sg90
I53
sg91
I46
sg92
I50
sg93
I64
sg94
I65
sg95
I55
sg96
I48
sg11
I12
sg97
I56
sg12
I17
sg98
I63
ssI146
(dp274
S'SEMICOLON'
p275
I167
ssI147
(dp276
g245
I-31
ssI148
(dp277
S'STRING'
p278
I168
ssI149
(dp279
g249
I169
ssI150
(dp280
g83
I61
sg171
I170
sg85
I59
sg86
I52
sg87
I60
sg88
I44
sg89
I45
sg90
I53
sg91
I46
sg92
I50
sg84
I42
sg93
I64
sg94
I65
sg95
I55
sg96
I48
sg11
I12
sg97
I56
sg12
I17
sg98
I63
ssI151
(dp281
g35
I-196
sg36
I-196
sg38
I-196
sg40
I-196
sg41
I-196
sg43
I-196
sg44
I-196
sg68
I-196
sg46
I-196
sg47
I-196
sg48
I-196
sg49
I-196
sg50
I-196
sg51
I-196
sg52
I-196
sg53
I-196
sg69
I-196
sg128
I-196
sg57
I-196
sg58
I-196
sg59
I-196
sg60
I-196
sg61
I-196
sg62
I-196
sg71
I-196
sg64
I-196
ssI152
(dp282
g35
I-202
sg36
I-202
sg38
I-202
sS'QUESTIONMARK'
p283
I176
sg40
I-202
sg41
I-202
sg43
I-202
sg44
I-202
sg68
I-202
sg46
I-202
sg47
I-202
sg48
I-202
sg49
I-202
sg50
I-202
sg51
I-202
sg52
I-202
sg53
I-202
sg69
I-202
sg128
I-202
sg57
I-202
sg58
I-202
sg59
I-202
sg60
I-202
sg61
I-202
sg62
I-202
sg71
I-202
sg64
I-202
ssI153
(dp284
g41
I-172
sg63
I178
ssI154
(dp285
g37
I-168
sg39
I-168
sg41
I-168
sg71
I-168
ssI155
(dp286
g35
I-199
sg36
I-199
sg38
I-199
sg40
I-199
sg41
I-199
sg43
I-199
sg44
I-199
sg68
I-199
sg46
I-199
sg47
I-199
sg48
I-199
sg49
I-199
sg50
I-199
sg51
I-199
sg52
I-199
sg53
I-199
sg69
I-199
sg128
I-199
sg57
I-199
sg58
I-199
sg59
I-199
sg60
I-199
sg61
I-199
sg62
I-199
sg71
I-199
sg64
I-199
ssI156
(dp287
g261
I179
ssI157
(dp288
g84
I-63
sg171
I170
sg88
I-63
sg89
I-63
sg172
I181
sg96
I-63
sg173
I183
sg85
I-63
sg174
I185
sg91
I-63
sg92
I-63
sg175
I-55
sg12
I-63
sg176
I-63
sg86
I-63
sg90
I-63
sg177
I187
sg178
I191
sg179
I189
sg95
I-63
sg11
I-63
sg97
I-63
sg180
I192
sg181
I-55
sg83
I-63
sg93
I-63
sg87
I-63
sg94
I-63
sg98
I-63
sg182
I194
ssI158
(dp289
g83
I-106
sS'RPAREN'
p290
I-73
sg85
I-106
sg86
I-106
sg87
I-106
sg88
I-106
sg89
I-106
sg90
I-106
sg91
I-106
sg92
I-106
sg8
I1
sg84
I-106
sg93
I-106
sg94
I-106
sg95
I-106
sg96
I-106
sg11
I-106
sg97
I-106
sg12
I-106
sg114
I-106
sg98
I-106
ssI159
(dp291
g267
I199
ssI160
(dp292
g15
I-215
sg17
I-215
ssI161
(dp293
g113
I-74
ssI162
(dp294
g128
I-100
sg35
I-100
sg36
I-100
sg58
I-100
sg49
I-100
sg43
I-100
sg59
I-100
sg50
I-100
sg47
I-100
sg51
I-100
sg52
I-100
sg60
I-100
sg53
I-100
sg38
I-100
sg46
I-100
sg61
I-100
sg57
I-100
sg62
I-100
sg192
I-100
sg64
I-100
sg40
I-100
ssI163
(dp295
g128
I214
sg35
I200
sg36
I201
sg58
I216
sg49
I209
sg43
I204
sg59
I217
sg50
I210
sg47
I208
sg51
I211
sg52
I212
sg60
I218
sg53
I213
sg38
I202
sg46
I207
sg61
I219
sg57
I215
sg62
I220
sg192
I206
sg64
I221
sg40
I203
ssI164
(dp296
S'SEMICOLON'
p297
I222
ssI165
(dp298
g134
I223
ssI166
(dp299
g83
I-106
sg84
I-106
sg242
I-25
sg85
I-106
sg86
I-106
sg87
I-106
sg88
I-106
sg89
I-106
sg90
I-106
sg91
I-106
sg92
I-106
sg8
I1
sg93
I-106
sg94
I-106
sg95
I-106
sg96
I-106
sg11
I-106
sg97
I-106
sg12
I-106
sg98
I-106
ssI167
(dp300
g3
I-30
sg4
I-30
sg5
I-30
sg6
I-30
sg7
I-30
sg8
I-30
sg9
I-30
sg10
I-30
sg11
I-30
sg12
I-30
sg13
I-30
ssI168
(dp301
g247
I148
sg245
I-33
ssI169
(dp302
S'SEMICOLON'
p303
I226
ssI170
(dp304
g84
I42
sg85
I59
sg87
I60
sg83
I61
sg90
I53
sg91
I46
sg92
I50
sg93
I64
sg97
I56
sS'IDENTIFIER'
p305
I229
sg94
I65
ssI171
(dp306
g83
I-103
sg171
I-103
sg249
I-103
sg85
I-103
sg86
I-103
sg87
I-103
sg88
I-103
sg89
I-103
sg90
I-103
sg91
I-103
sg92
I-103
sg8
I-103
sg84
I-103
sg93
I-103
sg94
I-103
sg95
I-103
sg96
I-103
sg11
I-103
sg97
I-103
sg12
I-103
sg98
I-103
ssI172
(dp307
g83
I-102
sg171
I-102
sg249
I-102
sg85
I-102
sg86
I-102
sg87
I-102
sg88
I-102
sg89
I-102
sg90
I-102
sg91
I-102
sg92
I-102
sg8
I-102
sg84
I-102
sg93
I-102
sg94
I-102
sg95
I-102
sg96
I-102
sg11
I-102
sg97
I-102
sg12
I-102
sg98
I-102
ssI173
(dp308
g45
I230
ssI174
(dp309
g83
I-106
sg171
I-106
sg249
I-36
sg85
I-106
sg86
I-106
sg87
I-106
sg88
I-106
sg89
I-106
sg90
I-106
sg91
I-106
sg92
I-106
sg8
I1
sg84
I-106
sg93
I-106
sg94
I-106
sg95
I-106
sg96
I-106
sg11
I-106
sg97
I-106
sg12
I-106
sg98
I-106
ssI175
(dp310
g35
I-176
sg36
I-176
sg38
I-176
sg40
I-176
sg41
I-176
sg43
I-176
sg44
I-176
sg134
I-176
sg46
I-176
sg47
I-176
sg48
I-176
sg49
I-176
sg50
I-176
sg51
I-176
sg52
I-176
sg53
I-176
sg69
I-176
sg128
I-176
sg57
I-176
sg58
I-176
sg59
I-176
sg60
I-176
sg61
I-176
sg62
I-176
sg63
I-176
sg64
I-176
ssI176
(dp311
g35
I-201
sg36
I-201
sg38
I-201
sg40
I-201
sg41
I-201
sg43
I-201
sg44
I-201
sS'IDENTIFIER'
p312
I-201
sg46
I-201
sg47
I-201
sg48
I-201
sg49
I-201
sg50
I-201
sg51
I-201
sg52
I-201
sg53
I-201
sg69
I-201
sg128
I-201
sg57
I-201
sg58
I-201
sg59
I-201
sg60
I-201
sg61
I-201
sg62
I-201
sg71
I-201
sg64
I-201
ssI177
(dp313
g41
I232
ssI178
(dp314
g83
I61
sg84
I42
sg85
I59
sg86
I52
sg87
I60
sg88
I44
sg89
I45
sg90
I53
sg91
I46
sg92
I50
sg93
I64
sg94
I65
sg95
I55
sg96
I48
sg11
I12
sg97
I56
sg12
I17
sg145
I101
ssI179
(dp315
S'SEMICOLON'
p316
I234
ssI180
(dp317
g84
I-106
sg171
I-106
sg88
I-106
sg89
I-106
sg8
I1
sg172
I-106
sg96
I-106
sg173
I-106
sg85
I-106
sg174
I-106
sg91
I-106
sg92
I-106
sg175
I-106
sg12
I-106
sg176
I-106
sg261
I-20
sg86
I-106
sg90
I-106
sg177
I-106
sg178
I-106
sg179
I-106
sg95
I-106
sg11
I-106
sg97
I-106
sg180
I-106
sg181
I-106
sg83
I-106
sg93
I-106
sg87
I-106
sg94
I-106
sg98
I-106
sg182
I-106
ssI181
(dp318
g83
I-58
sg84
I-58
sg85
I-58
sg86
I-58
sg181
I-58
sg88
I-58
sg89
I-58
sg90
I-58
sg91
I-58
sg92
I-58
sg98
I-58
sg175
I-58
sg93
I-58
sg94
I-58
sg95
I-58
sg87
I-58
sg96
I-58
sg11
I-58
sg97
I-58
sg12
I-58
sg176
I-58
ssI182
(dp319
g84
I-21
sg171
I-21
sg88
I-21
sg89
I-21
sg8
I-21
sg172
I-21
sg96
I-21
sg173
I-21
sg85
I-21
sg174
I-21
sg91
I-21
sg92
I-21
sg175
I-21
sg12
I-21
sg176
I-21
sg261
I-21
sg86
I-21
sg90
I-21
sg177
I-21
sg178
I-21
sg179
I-21
sg95
I-21
sg11
I-21
sg97
I-21
sg180
I-21
sg181
I-21
sg83
I-21
sg93
I-21
sg87
I-21
sg94
I-21
sg98
I-21
sg182
I-21
ssI183
(dp320
g84
I-65
sg176
I-65
sg89
I-65
sg96
I-65
sg173
I-65
sg85
I-65
sg174
I-65
sg91
I-65
sg92
I-65
sg12
I-65
sg88
I-65
sg86
I-65
sg90
I-65
sg178
I-65
sg179
I-65
sg95
I-65
sg11
I-65
sg97
I-65
sg87
I-65
sg83
I-65
sg93
I-65
sg94
I-65
sg98
I-65
sg182
I-65
ssI184
(dp321
g83
I-60
sg84
I-60
sg85
I-60
sg86
I-60
sg87
I-60
sg88
I-60
sg89
I-60
sg90
I-60
sg91
I-60
sg92
I-60
sg98
I-60
sg175
I237
sg93
I-60
sg94
I-60
sg95
I-60
sg181
I-53
sg96
I-60
sg11
I-60
sg97
I-60
sg12
I-60
sg176
I-60
ssI185
(dp322
g84
I-66
sg176
I-66
sg89
I-66
sg96
I-66
sg173
I-66
sg85
I-66
sg174
I-66
sg91
I-66
sg92
I-66
sg12
I-66
sg88
I-66
sg86
I-66
sg90
I-66
sg178
I-66
sg179
I-66
sg95
I-66
sg11
I-66
sg97
I-66
sg87
I-66
sg83
I-66
sg93
I-66
sg94
I-66
sg98
I-66
sg182
I-66
ssI186
(dp323
g84
I-22
sg171
I-22
sg88
I-22
sg89
I-22
sg8
I-22
sg172
I-22
sg96
I-22
sg173
I-22
sg85
I-22
sg174
I-22
sg91
I-22
sg92
I-22
sg175
I-22
sg12
I-22
sg176
I-22
sg261
I-22
sg86
I-22
sg90
I-22
sg177
I-22
sg178
I-22
sg179
I-22
sg95
I-22
sg11
I-22
sg97
I-22
sg180
I-22
sg181
I-22
sg83
I-22
sg93
I-22
sg87
I-22
sg94
I-22
sg98
I-22
sg182
I-22
ssI187
(dp324
g181
I-54
sg175
I-54
ssI188
(dp325
g83
I-61
sg84
I-61
sg85
I-61
sg86
I-61
sg87
I-61
sg88
I-61
sg89
I-61
sg90
I-61
sg91
I-61
sg92
I-61
sg98
I-61
sg93
I-61
sg94
I-61
sg95
I-61
sg96
I-61
sg11
I-61
sg97
I-61
sg12
I-61
sg176
I-61
ssI189
(dp326
g84
I-64
sg176
I-64
sg89
I-64
sg96
I-64
sg173
I-64
sg85
I-64
sg174
I-64
sg91
I-64
sg92
I-64
sg12
I-64
sg88
I-64
sg86
I-64
sg90
I-64
sg178
I-64
sg179
I-64
sg95
I-64
sg11
I-64
sg97
I-64
sg87
I-64
sg83
I-64
sg93
I-64
sg94
I-64
sg98
I-64
sg182
I-64
ssI190
(dp327
g181
I-53
sg175
I237
ssI191
(dp328
g84
I-68
sg176
I-68
sg89
I-68
sg96
I-68
sg173
I-68
sg85
I-68
sg174
I-68
sg91
I-68
sg92
I-68
sg12
I-68
sg88
I-68
sg86
I-68
sg90
I-68
sg178
I-68
sg179
I-68
sg95
I-68
sg11
I-68
sg97
I-68
sg87
I-68
sg83
I-68
sg93
I-68
sg94
I-68
sg98
I-68
sg182
I-68
ssI192
(dp329
g84
I-59
sg176
I-59
sg89
I-59
sg96
I-59
sg85
I-59
sg91
I-59
sg92
I-59
sg175
I-59
sg12
I-59
sg88
I-59
sg86
I-59
sg90
I-59
sg95
I-59
sg11
I-59
sg97
I-59
sS'SEMICOLON'
p330
I240
sg181
I-59
sg83
I-59
sg93
I-59
sg87
I-59
sg94
I-59
sg98
I-59
ssI193
(dp331
g84
I-47
sg171
I-47
sg88
I-47
sg89
I-47
sg8
I-47
sg172
I-47
sg96
I-47
sg173
I-47
sg85
I-47
sg174
I-47
sg91
I-47
sg92
I-47
sg175
I-47
sg12
I-47
sg176
I-47
sg261
I-47
sg86
I-47
sg90
I-47
sg177
I-47
sg178
I-47
sg179
I-47
sg95
I-47
sg11
I-47
sg97
I-47
sg180
I-47
sg181
I-47
sg83
I-47
sg93
I-47
sg87
I-47
sg94
I-47
sg98
I-47
sg182
I-47
ssI194
(dp332
g84
I-67
sg176
I-67
sg89
I-67
sg96
I-67
sg173
I-67
sg85
I-67
sg174
I-67
sg91
I-67
sg92
I-67
sg12
I-67
sg88
I-67
sg86
I-67
sg90
I-67
sg178
I-67
sg179
I-67
sg95
I-67
sg11
I-67
sg97
I-67
sg87
I-67
sg83
I-67
sg93
I-67
sg94
I-67
sg98
I-67
sg182
I-67
ssI195
(dp333
g84
I-48
sg171
I-48
sg88
I-48
sg89
I-48
sg8
I-48
sg172
I-48
sg96
I-48
sg173
I-48
sg85
I-48
sg174
I-48
sg91
I-48
sg92
I-48
sg175
I-48
sg12
I-48
sg176
I-48
sg261
I-48
sg86
I-48
sg90
I-48
sg177
I-48
sg178
I-48
sg179
I-48
sg95
I-48
sg11
I-48
sg97
I-48
sg180
I-48
sg181
I-48
sg83
I-48
sg93
I-48
sg87
I-48
sg94
I-48
sg98
I-48
sg182
I-48
ssI196
(dp334
g83
I61
sg84
I42
sg85
I59
sg86
I52
sg87
I60
sg88
I44
sg89
I45
sg90
I53
sg91
I46
sg92
I50
sg98
I63
sg93
I64
sg94
I65
sg95
I55
sg96
I48
sg11
I12
sg97
I56
sg12
I17
sg176
I136
ssI197
(dp335
g84
I-63
sg88
I-63
sg89
I-63
sg96
I-63
sg173
I183
sg85
I-63
sg174
I185
sg91
I-63
sg92
I-63
sg12
I-63
sg176
I-63
sg86
I-63
sg90
I-63
sg178
I191
sg179
I189
sg95
I-63
sg11
I-63
sg97
I-63
sg87
I-63
sg83
I-63
sg93
I-63
sg94
I-63
sg98
I-63
sg182
I194
ssI198
(dp336
g290
I244
ssI199
(dp337
S'SEMICOLON'
p338
I245
ssI200
(dp339
g113
I-85
sg189
I-85
sS'EQUALS'
p340
I-85
ssI201
(dp341
g113
I-80
sg189
I-80
sg340
I-80
ssI202
(dp342
g113
I-94
sg189
I-94
sg340
I-94
ssI203
(dp343
g113
I-93
sg189
I-93
sg340
I-93
ssI204
(dp344
g113
I-81
sg189
I-81
sg340
I-81
ssI205
(dp345
g113
I-28
sg189
I-28
sg340
I247
ssI206
(dp346
g113
I-77
sg189
I-77
sg340
I-77
ssI207
(dp347
g113
I-92
sg189
I-92
sg340
I-92
ssI208
(dp348
g113
I-96
sg189
I-96
sg340
I-96
ssI209
(dp349
g113
I-83
sg189
I-83
sg340
I-83
ssI210
(dp350
g113
I-84
sg189
I-84
sg340
I-84
ssI211
(dp351
g113
I-88
sg189
I-88
sg340
I-88
ssI212
(dp352
g113
I-90
sg189
I-90
sg340
I-90
ssI213
(dp353
g113
I-86
sg189
I-86
sg340
I-86
ssI214
(dp354
g113
I-87
sg189
I-87
sg340
I-87
ssI215
(dp355
g113
I-91
sg189
I-91
sg340
I-91
ssI216
(dp356
g113
I-95
sg189
I-95
sg340
I-95
ssI217
(dp357
g113
I-78
sg189
I-78
sg340
I-78
ssI218
(dp358
g113
I-79
sg189
I-79
sg340
I-79
ssI219
(dp359
g113
I-89
sg189
I-89
sg340
I-89
ssI220
(dp360
g113
I-97
sg189
I-97
sg340
I-97
ssI221
(dp361
g113
I-82
sg189
I-82
sg340
I-82
ssI222
(dp362
g3
I-23
sg4
I-23
sg5
I-23
sg6
I-23
sg7
I-23
sg8
I-23
sg9
I-23
sg10
I-23
sg11
I-23
sg12
I-23
sg13
I-23
ssI223
(dp363
g340
I247
sS'SEMICOLON'
p364
I-28
ssI224
(dp365
g242
I-24
ssI225
(dp366
g245
I-32
ssI226
(dp367
g3
I-29
sg4
I-29
sg5
I-29
sg6
I-29
sg7
I-29
sg8
I-29
sg9
I-29
sg10
I-29
sg11
I-29
sg12
I-29
sg13
I-29
ssI227
(dp368
g312
I249
ssI228
(dp369
g312
I-202
sg283
I176
ssI229
(dp370
g312
I-202
sg283
I176
ssI230
(dp371
S'SEMICOLON'
p372
I252
ssI231
(dp373
g249
I-35
ssI232
(dp374
g35
I-166
sg36
I-166
sg37
I-166
sg38
I-166
sg39
I-166
sg40
I-166
sg41
I-166
sg43
I-166
sg44
I-166
sg45
I-166
sg46
I-166
sg47
I-166
sg48
I-166
sg49
I-166
sg50
I-166
sg51
I-166
sg52
I-166
sg53
I-166
sg54
I-166
sg128
I-166
sg57
I-166
sg58
I-166
sg59
I-166
sg60
I-166
sg61
I-166
sg62
I-166
sg63
I-166
sg64
I-166
ssI233
(dp375
g41
I-172
sg63
I178
ssI234
(dp376
g3
I-16
sg4
I-16
sg5
I-16
sg6
I-16
sg7
I-16
sg8
I-16
sg9
I-16
sg10
I-16
sg11
I-16
sg12
I-16
sg13
I-16
ssI235
(dp377
g261
I-19
ssI236
(dp378
g84
I-49
sg171
I-49
sg88
I-49
sg89
I-49
sg8
I-49
sg172
I-49
sg96
I-49
sg173
I-49
sg85
I-49
sg174
I-49
sg91
I-49
sg92
I-49
sg175
I-49
sg12
I-49
sg176
I-49
sg261
I-49
sg86
I-49
sg90
I-49
sg177
I-49
sg178
I-49
sg179
I-49
sg95
I-49
sg11
I-49
sg97
I-49
sg180
I-49
sg181
I-49
sg83
I-49
sg93
I-49
sg87
I-49
sg94
I-49
sg98
I-49
sg182
I-49
ssI237
(dp379
g181
I-52
ssI238
(dp380
g181
I254
ssI239
(dp381
g84
I-50
sg171
I-50
sg88
I-50
sg89
I-50
sg8
I-50
sg172
I-50
sg96
I-50
sg173
I-50
sg85
I-50
sg174
I-50
sg91
I-50
sg92
I-50
sg175
I-50
sg12
I-50
sg176
I-50
sg261
I-50
sg86
I-50
sg90
I-50
sg177
I-50
sg178
I-50
sg179
I-50
sg95
I-50
sg11
I-50
sg97
I-50
sg180
I-50
sg181
I-50
sg83
I-50
sg93
I-50
sg87
I-50
sg94
I-50
sg98
I-50
sg182
I-50
ssI240
(dp382
g84
I-57
sg171
I-57
sg88
I-57
sg89
I-57
sg8
I-57
sg172
I-57
sg96
I-57
sg173
I-57
sg85
I-57
sg174
I-57
sg91
I-57
sg92
I-57
sg175
I-57
sg12
I-57
sg176
I-57
sg261
I-57
sg86
I-57
sg90
I-57
sg177
I-57
sg178
I-57
sg179
I-57
sg95
I-57
sg11
I-57
sg97
I-57
sg180
I-57
sg181
I-57
sg83
I-57
sg93
I-57
sg87
I-57
sg94
I-57
sg98
I-57
sg182
I-57
ssI241
(dp383
g84
I-56
sg171
I-56
sg88
I-56
sg89
I-56
sg8
I-56
sg172
I-56
sg96
I-56
sg173
I-56
sg85
I-56
sg174
I-56
sg91
I-56
sg92
I-56
sg175
I-56
sg12
I-56
sg176
I-56
sg261
I-56
sg86
I-56
sg90
I-56
sg177
I-56
sg178
I-56
sg179
I-56
sg95
I-56
sg11
I-56
sg97
I-56
sg180
I-56
sg181
I-56
sg83
I-56
sg93
I-56
sg87
I-56
sg94
I-56
sg98
I-56
sg182
I-56
ssI242
(dp384
g263
I256
sg54
I-71
ssI243
(dp385
g83
I-62
sg84
I-62
sg85
I-62
sg86
I-62
sg87
I-62
sg88
I-62
sg89
I-62
sg90
I-62
sg91
I-62
sg92
I-62
sg98
I-62
sg93
I-62
sg94
I-62
sg95
I-62
sg96
I-62
sg11
I-62
sg97
I-62
sg12
I-62
sg176
I-62
ssI244
(dp386
S'SEMICOLON'
p387
I257
ssI245
(dp388
g3
I-14
sg4
I-14
sg5
I-14
sg6
I-14
sg7
I-14
sg8
I-14
sg9
I-14
sg10
I-14
sg11
I-14
sg12
I-14
sg13
I-14
ssI246
(dp389
g290
I-76
sg189
I-76
ssI247
(dp390
S'FALSE'
p391
I259
sS'STRING'
p392
I260
sS'FLOATLITERAL'
p393
I262
sS'INTEGER'
p394
I263
sS'NULL'
p395
I258
sS'TRUE'
p396
I265
ssI248
(dp397
g364
I266
ssI249
(dp398
S'EQUALS'
p399
I267
ssI250
(dp400
g312
I-179
ssI251
(dp401
g312
I-180
ssI252
(dp402
g83
I-104
sg171
I-104
sg249
I-104
sg85
I-104
sg86
I-104
sg87
I-104
sg88
I-104
sg89
I-104
sg90
I-104
sg91
I-104
sg92
I-104
sg8
I-104
sg84
I-104
sg93
I-104
sg94
I-104
sg95
I-104
sg96
I-104
sg11
I-104
sg97
I-104
sg12
I-104
sg98
I-104
ssI253
(dp403
g41
I-171
ssI254
(dp404
g83
I61
sg84
I42
sg85
I59
sg86
I52
sg87
I60
sg88
I44
sg89
I45
sg90
I53
sg91
I46
sg92
I50
sg93
I64
sg94
I65
sg95
I55
sg96
I48
sg11
I12
sg97
I56
sg12
I17
sg98
I63
ssI255
(dp405
g54
I269
ssI256
(dp406
g54
I-70
ssI257
(dp407
g3
I-34
sg4
I-34
sg5
I-34
sg6
I-34
sg7
I-34
sg8
I-34
sg9
I-34
sg10
I-34
sg11
I-34
sg12
I-34
sg13
I-34
ssI258
(dp408
g113
I-44
sg189
I-44
sS'SEMICOLON'
p409
I-44
ssI259
(dp410
g113
I-46
sg189
I-46
sg364
I-46
ssI260
(dp411
g113
I-43
sg189
I-43
sg409
I-43
ssI261
(dp412
g113
I-27
sg189
I-27
sg364
I-27
ssI262
(dp413
g113
I-42
sg189
I-42
sg409
I-42
ssI263
(dp414
g113
I-41
sg189
I-41
sg409
I-41
ssI264
(dp415
g113
I-40
sg189
I-40
sg409
I-40
ssI265
(dp416
g113
I-45
sg189
I-45
sg364
I-45
ssI266
(dp417
g83
I-26
sg84
I-26
sg242
I-26
sg85
I-26
sg86
I-26
sg87
I-26
sg88
I-26
sg89
I-26
sg90
I-26
sg91
I-26
sg92
I-26
sg8
I-26
sg93
I-26
sg94
I-26
sg95
I-26
sg96
I-26
sg11
I-26
sg97
I-26
sg12
I-26
sg98
I-26
ssI267
(dp418
g391
I259
sg392
I260
sg393
I262
sg394
I263
sg395
I258
sg396
I265
ssI268
(dp419
g119
I271
ssI269
(dp420
g83
I-106
sg237
I-73
sg85
I-106
sg86
I-106
sg87
I-106
sg88
I-106
sg89
I-106
sg90
I-106
sg91
I-106
sg92
I-106
sg8
I1
sg84
I-106
sg93
I-106
sg94
I-106
sg95
I-106
sg96
I-106
sg11
I-106
sg97
I-106
sg12
I-106
sg114
I-106
sg98
I-106
ssI270
(dp421
g409
I273
ssI271
(dp422
S'SEMICOLON'
p423
I274
ssI272
(dp424
g237
I275
ssI273
(dp425
g84
I-39
sg171
I-39
sg88
I-39
sg89
I-39
sg8
I-39
sg172
I-39
sg96
I-39
sg173
I-39
sg85
I-39
sg174
I-39
sg91
I-39
sg92
I-39
sg175
I-39
sg12
I-39
sg176
I-39
sg261
I-39
sg86
I-39
sg90
I-39
sg177
I-39
sg178
I-39
sg179
I-39
sg95
I-39
sg11
I-39
sg97
I-39
sg180
I-39
sg181
I-39
sg83
I-39
sg93
I-39
sg87
I-39
sg94
I-39
sg98
I-39
sg182
I-39
ssI274
(dp426
g84
I-51
sg171
I-51
sg88
I-51
sg89
I-51
sg8
I-51
sg172
I-51
sg96
I-51
sg173
I-51
sg85
I-51
sg174
I-51
sg91
I-51
sg92
I-51
sg175
I-51
sg12
I-51
sg176
I-51
sg261
I-51
sg86
I-51
sg90
I-51
sg177
I-51
sg178
I-51
sg179
I-51
sg95
I-51
sg11
I-51
sg97
I-51
sg180
I-51
sg181
I-51
sg83
I-51
sg93
I-51
sg87
I-51
sg94
I-51
sg98
I-51
sg182
I-51
ssI275
(dp427
S'SEMICOLON'
p428
I276
ssI276
(dp429
g84
I-69
sg171
I-69
sg88
I-69
sg89
I-69
sg8
I-69
sg172
I-69
sg96
I-69
sg173
I-69
sg85
I-69
sg174
I-69
sg91
I-69
sg92
I-69
sg175
I-69
sg12
I-69
sg176
I-69
sg261
I-69
sg86
I-69
sg90
I-69
sg177
I-69
sg178
I-69
sg179
I-69
sg95
I-69
sg11
I-69
sg97
I-69
sg180
I-69
sg181
I-69
sg83
I-69
sg93
I-69
sg87
I-69
sg94
I-69
sg98
I-69
sg182
I-69
ss.(dp1
I0
(dp2
S'Definitions'
p3
I3
sS'ExtendedAttributeList'
p4
I2
ssI1
(dp5
S'ExtendedAttribute'
p6
I4
sS'ExtendedAttributeNoArgs'
p7
I8
sS'ExtendedAttributeIdent'
p8
I7
sS'ExtendedAttributeNamedArgList'
p9
I5
sS'ExtendedAttributeArgList'
p10
I6
ssI2
(dp11
S'Definition'
p12
I18
sS'Typedef'
p13
I10
sS'RelativeScopedName'
p14
I27
sS'Dictionary'
p15
I13
sS'CallbackOrInterface'
p16
I11
sS'Enum'
p17
I15
sS'Exception'
p18
I19
sS'AbsoluteScopedName'
p19
I14
sS'Interface'
p20
I16
sS'ScopedName'
p21
I30
sS'PartialInterface'
p22
I23
sS'ImplementsStatement'
p23
I24
ssI3
(dp24
sI4
(dp25
S'ExtendedAttributes'
p26
I31
ssI5
(dp27
sI6
(dp28
sI7
(dp29
sI8
(dp30
sI9
(dp31
sI10
(dp32
sI11
(dp33
sI12
(dp34
sI13
(dp35
sI14
(dp36
sI15
(dp37
sI16
(dp38
sI17
(dp39
S'ScopedNameParts'
p40
I37
ssI18
(dp41
S'Definitions'
p42
I38
sg4
I2
ssI19
(dp43
sI20
(dp44
sI21
(dp45
sI22
(dp46
sI23
(dp47
sI24
(dp48
sI25
(dp49
S'NonAnyType'
p50
I51
sS'PrimitiveOrStringType'
p51
I43
sg19
I14
sS'UnionType'
p52
I57
sg14
I27
sS'UnsignedIntegerType'
p53
I62
sS'IntegerType'
p54
I54
sS'SingleType'
p55
I47
sS'ScopedName'
p56
I58
sS'Type'
p57
I49
ssI26
(dp58
sI27
(dp59
sI28
(dp60
S'Interface'
p61
I69
sS'CallbackRestOrInterface'
p62
I67
sS'CallbackRest'
p63
I68
ssI29
(dp64
sI30
(dp65
sI31
(dp66
sI32
(dp67
S'ExtendedAttribute'
p68
I74
sg7
I8
sg8
I7
sg9
I5
sg10
I6
ssI33
(dp69
sI34
(dp70
S'ArgumentList'
p71
I77
sS'ExtendedAttributeList'
p72
I79
sS'Argument'
p73
I78
ssI35
(dp74
S'ScopedNameParts'
p75
I80
ssI36
(dp76
sI37
(dp77
sI38
(dp78
sI39
(dp79
S'Inheritance'
p80
I82
ssI40
(dp81
sI41
(dp82
S'Inheritance'
p83
I85
ssI42
(dp84
sI43
(dp85
S'TypeSuffix'
p86
I87
ssI44
(dp87
S'TypeSuffix'
p88
I89
ssI45
(dp89
S'TypeSuffix'
p90
I90
ssI46
(dp91
g54
I91
ssI47
(dp92
sI48
(dp93
S'TypeSuffix'
p94
I92
ssI49
(dp95
sI50
(dp96
S'OptionalLong'
p97
I94
ssI51
(dp98
sI52
(dp99
sI53
(dp100
sI54
(dp101
sI55
(dp102
S'NonAnyType'
p103
I99
sg51
I43
sg19
I14
sg14
I27
sS'UnionMemberTypeArrayOfAny'
p104
I97
sg53
I62
sS'UnionMemberType'
p105
I98
sg54
I54
sg56
I58
sS'UnionType'
p106
I100
ssI56
(dp107
sI57
(dp108
S'TypeSuffix'
p109
I102
ssI58
(dp110
S'TypeSuffix'
p111
I103
ssI59
(dp112
sI60
(dp113
sI61
(dp114
sI62
(dp115
sI63
(dp116
S'TypeSuffixStartingWithArray'
p117
I105
ssI64
(dp118
sI65
(dp119
sI66
(dp120
sI67
(dp121
sI68
(dp122
sI69
(dp123
sI70
(dp124
sI71
(dp125
S'Inheritance'
p126
I111
ssI72
(dp127
g19
I14
sg21
I112
sg14
I27
ssI73
(dp128
sI74
(dp129
S'ExtendedAttributes'
p130
I113
ssI75
(dp131
sI76
(dp132
sI77
(dp133
sI78
(dp134
S'Arguments'
p135
I117
ssI79
(dp136
S'Optional'
p137
I119
ssI80
(dp138
sI81
(dp139
S'ScopedNameParts'
p140
I120
ssI82
(dp141
sI83
(dp142
g19
I14
sS'ScopedName'
p143
I122
sg14
I27
ssI84
(dp144
S'EnumValueList'
p145
I123
ssI85
(dp146
sI86
(dp147
sI87
(dp148
sI88
(dp149
S'TypeSuffixStartingWithArray'
p150
I127
ssI89
(dp151
sI90
(dp152
sI91
(dp153
sI92
(dp154
sI93
(dp155
sI94
(dp156
sI95
(dp157
sI96
(dp158
g50
I51
sg51
I43
sg19
I14
sg52
I57
sg14
I27
sg53
I62
sg54
I54
sg55
I47
sg56
I58
sS'Type'
p159
I129
ssI97
(dp160
S'TypeSuffix'
p161
I130
ssI98
(dp162
sI99
(dp163
sI100
(dp164
S'TypeSuffix'
p165
I132
ssI101
(dp166
sI102
(dp167
sI103
(dp168
sI104
(dp169
sI105
(dp170
sI106
(dp171
sI107
(dp172
sI108
(dp173
sI109
(dp174
g50
I51
sg51
I43
sg19
I14
sS'Type'
p175
I137
sg14
I27
sg53
I62
sg54
I54
sg55
I47
sS'ReturnType'
p176
I138
sg56
I58
sg52
I57
ssI110
(dp177
sI111
(dp178
sI112
(dp179
sI113
(dp180
sI114
(dp181
S'ArgumentList'
p182
I141
sg72
I79
sg73
I78
ssI115
(dp183
sI116
(dp184
g72
I79
sS'Argument'
p185
I142
ssI117
(dp186
sI118
(dp187
sI119
(dp188
g50
I51
sg51
I43
sg19
I14
sS'Type'
p189
I143
sg14
I27
sg53
I62
sg54
I54
sg55
I47
sg56
I58
sg52
I57
ssI120
(dp190
sI121
(dp191
S'ExtendedAttributeList'
p192
I145
sS'DictionaryMembers'
p193
I144
ssI122
(dp194
sI123
(dp195
sI124
(dp196
S'EnumValues'
p197
I147
ssI125
(dp198
S'ExtendedAttributeList'
p199
I150
sS'ExceptionMembers'
p200
I149
ssI126
(dp201
S'TypeSuffix'
p202
I151
ssI127
(dp203
sI128
(dp204
sI129
(dp205
sI130
(dp206
sI131
(dp207
g103
I99
sg51
I43
sg19
I14
sg14
I27
sg104
I97
sg53
I62
sg105
I153
sg54
I54
sg56
I58
sg106
I100
ssI132
(dp208
sI133
(dp209
sI134
(dp210
S'TypeSuffix'
p211
I155
ssI135
(dp212
S'InterfaceMembers'
p213
I156
sS'ExtendedAttributeList'
p214
I157
ssI136
(dp215
sI137
(dp216
sI138
(dp217
sI139
(dp218
S'InterfaceMembers'
p219
I159
sg214
I157
ssI140
(dp220
sI141
(dp221
sI142
(dp222
S'Arguments'
p223
I161
ssI143
(dp224
S'Ellipsis'
p225
I163
ssI144
(dp226
sI145
(dp227
g50
I51
sg51
I43
sg19
I14
sS'Type'
p228
I165
sg14
I27
sg53
I62
sS'DictionaryMember'
p229
I166
sg54
I54
sg55
I47
sg56
I58
sg52
I57
ssI146
(dp230
sI147
(dp231
sI148
(dp232
sI149
(dp233
sI150
(dp234
g50
I51
sS'Const'
p235
I172
sg51
I43
sg19
I14
sg52
I57
sS'ExceptionMember'
p236
I174
sg14
I27
sg53
I62
sg54
I54
sg55
I47
sS'ExceptionField'
p237
I171
sg56
I58
sS'Type'
p238
I173
ssI151
(dp239
sI152
(dp240
S'Null'
p241
I175
ssI153
(dp242
S'UnionMemberTypes'
p243
I177
ssI154
(dp244
sI155
(dp245
sI156
(dp246
sI157
(dp247
S'InterfaceMember'
p248
I180
sS'Qualifier'
p249
I184
sS'Attribute'
p250
I193
sS'Inherit'
p251
I190
sS'Specials'
p252
I188
sS'AttributeOrOperation'
p253
I186
sS'Const'
p254
I182
sS'Operation'
p255
I195
sS'Qualifiers'
p256
I196
sS'Special'
p257
I197
ssI158
(dp258
S'ArgumentList'
p259
I198
sg72
I79
sg73
I78
ssI159
(dp260
sI160
(dp261
sI161
(dp262
sI162
(dp263
sI163
(dp264
S'ArgumentName'
p265
I205
ssI164
(dp266
sI165
(dp267
sI166
(dp268
g192
I145
sS'DictionaryMembers'
p269
I224
ssI167
(dp270
sI168
(dp271
S'EnumValues'
p272
I225
ssI169
(dp273
sI170
(dp274
S'ConstType'
p275
I227
sg53
I62
sS'PrimitiveOrStringType'
p276
I228
sg54
I54
ssI171
(dp277
sI172
(dp278
sI173
(dp279
sI174
(dp280
g199
I150
sS'ExceptionMembers'
p281
I231
ssI175
(dp282
sI176
(dp283
sI177
(dp284
sI178
(dp285
g103
I99
sg51
I43
sg19
I14
sg14
I27
sg104
I97
sg53
I62
sS'UnionMemberType'
p286
I233
sg54
I54
sg56
I58
sg106
I100
ssI179
(dp287
sI180
(dp288
S'InterfaceMembers'
p289
I235
sg214
I157
ssI181
(dp290
sI182
(dp291
sI183
(dp292
sI184
(dp293
S'ReadOnly'
p294
I238
sS'AttributeRest'
p295
I236
ssI185
(dp296
sI186
(dp297
sI187
(dp298
sI188
(dp299
sI189
(dp300
sI190
(dp301
g294
I238
sS'AttributeRest'
p302
I239
ssI191
(dp303
sI192
(dp304
sI193
(dp305
sI194
(dp306
sI195
(dp307
sI196
(dp308
g50
I51
sS'OperationRest'
p309
I241
sg51
I43
sg19
I14
sg52
I57
sg14
I27
sg53
I62
sg54
I54
sg55
I47
sS'ReturnType'
p310
I242
sg56
I58
sg175
I137
ssI197
(dp311
S'Specials'
p312
I243
sg257
I197
ssI198
(dp313
sI199
(dp314
sI200
(dp315
sI201
(dp316
sI202
(dp317
sI203
(dp318
sI204
(dp319
sI205
(dp320
S'DefaultValue'
p321
I246
ssI206
(dp322
sI207
(dp323
sI208
(dp324
sI209
(dp325
sI210
(dp326
sI211
(dp327
sI212
(dp328
sI213
(dp329
sI214
(dp330
sI215
(dp331
sI216
(dp332
sI217
(dp333
sI218
(dp334
sI219
(dp335
sI220
(dp336
sI221
(dp337
sI222
(dp338
sI223
(dp339
S'DefaultValue'
p340
I248
ssI224
(dp341
sI225
(dp342
sI226
(dp343
sI227
(dp344
sI228
(dp345
S'Null'
p346
I250
ssI229
(dp347
S'Null'
p348
I251
ssI230
(dp349
sI231
(dp350
sI232
(dp351
sI233
(dp352
S'UnionMemberTypes'
p353
I253
ssI234
(dp354
sI235
(dp355
sI236
(dp356
sI237
(dp357
sI238
(dp358
sI239
(dp359
sI240
(dp360
sI241
(dp361
sI242
(dp362
S'OptionalIdentifier'
p363
I255
ssI243
(dp364
sI244
(dp365
sI245
(dp366
sI246
(dp367
sI247
(dp368
S'ConstValue'
p369
I261
sS'BooleanLiteral'
p370
I264
ssI248
(dp371
sI249
(dp372
sI250
(dp373
sI251
(dp374
sI252
(dp375
sI253
(dp376
sI254
(dp377
g50
I51
sg51
I43
sg19
I14
sg52
I57
sg14
I27
sg53
I62
sg54
I54
sg55
I47
sg56
I58
sS'Type'
p378
I268
ssI255
(dp379
sI256
(dp380
sI257
(dp381
sI258
(dp382
sI259
(dp383
sI260
(dp384
sI261
(dp385
sI262
(dp386
sI263
(dp387
sI264
(dp388
sI265
(dp389
sI266
(dp390
sI267
(dp391
S'ConstValue'
p392
I270
sg370
I264
ssI268
(dp393
sI269
(dp394
S'ArgumentList'
p395
I272
sg72
I79
sg73
I78
ssI270
(dp396
sI271
(dp397
sI272
(dp398
sI273
(dp399
sI274
(dp400
sI275
(dp401
sI276
(dp402
s.(lp1
(S"S' -> Definitions"
p2
S"S'"
p3
I1
NNNtp4
a(S'Definitions -> ExtendedAttributeList Definition Definitions'
p5
S'Definitions'
p6
I3
S'p_Definitions'
p7
S'/home/txema/work/firefox-20.0+build1/dom/bindings/parser/WebIDL.py'
p8
I2928
tp9
a(S'Definitions -> <empty>'
p10
S'Definitions'
p11
I0
S'p_DefinitionsEmpty'
p12
S'/home/txema/work/firefox-20.0+build1/dom/bindings/parser/WebIDL.py'
p13
I2941
tp14
a(S'Definition -> CallbackOrInterface'
p15
S'Definition'
p16
I1
S'p_Definition'
p17
S'/home/txema/work/firefox-20.0+build1/dom/bindings/parser/WebIDL.py'
p18
I2947
tp19
a(S'Definition -> PartialInterface'
p20
g16
I1
g17
g18
I2948
tp21
a(S'Definition -> Dictionary'
p22
g16
I1
g17
g18
I2949
tp23
a(S'Definition -> Exception'
p24
g16
I1
g17
g18
I2950
tp25
a(S'Definition -> Enum'
p26
g16
I1
g17
g18
I2951
tp27
a(S'Definition -> Typedef'
p28
g16
I1
g17
g18
I2952
tp29
a(S'Definition -> ImplementsStatement'
p30
g16
I1
g17
g18
I2953
tp31
a(S'CallbackOrInterface -> CALLBACK CallbackRestOrInterface'
p32
S'CallbackOrInterface'
p33
I2
S'p_CallbackOrInterfaceCallback'
p34
S'/home/txema/work/firefox-20.0+build1/dom/bindings/parser/WebIDL.py'
p35
I2960
tp36
a(S'CallbackOrInterface -> Interface'
p37
S'CallbackOrInterface'
p38
I1
S'p_CallbackOrInterfaceInterface'
p39
S'/home/txema/work/firefox-20.0+build1/dom/bindings/parser/WebIDL.py'
p40
I2970
tp41
a(S'CallbackRestOrInterface -> CallbackRest'
p42
S'CallbackRestOrInterface'
p43
I1
S'p_CallbackRestOrInterface'
p44
S'/home/txema/work/firefox-20.0+build1/dom/bindings/parser/WebIDL.py'
p45
I2976
tp46
a(S'CallbackRestOrInterface -> Interface'
p47
g43
I1
g44
g45
I2977
tp48
a(S'Interface -> INTERFACE IDENTIFIER Inheritance LBRACE InterfaceMembers RBRACE SEMICOLON'
p49
S'Interface'
p50
I7
S'p_Interface'
p51
S'/home/txema/work/firefox-20.0+build1/dom/bindings/parser/WebIDL.py'
p52
I2984
tp53
a(S'Interface -> INTERFACE IDENTIFIER SEMICOLON'
p54
S'Interface'
p55
I3
S'p_InterfaceForwardDecl'
p56
S'/home/txema/work/firefox-20.0+build1/dom/bindings/parser/WebIDL.py'
p57
I2994
tp58
a(S'PartialInterface -> PARTIAL INTERFACE IDENTIFIER LBRACE InterfaceMembers RBRACE SEMICOLON'
p59
S'PartialInterface'
p60
I7
S'p_PartialInterface'
p61
S'/home/txema/work/firefox-20.0+build1/dom/bindings/parser/WebIDL.py'
p62
I3010
tp63
a(S'Inheritance -> COLON ScopedName'
p64
S'Inheritance'
p65
I2
S'p_Inheritance'
p66
S'/home/txema/work/firefox-20.0+build1/dom/bindings/parser/WebIDL.py'
p67
I3016
tp68
a(S'Inheritance -> <empty>'
p69
S'Inheritance'
p70
I0
S'p_InheritanceEmpty'
p71
S'/home/txema/work/firefox-20.0+build1/dom/bindings/parser/WebIDL.py'
p72
I3022
tp73
a(S'InterfaceMembers -> ExtendedAttributeList InterfaceMember InterfaceMembers'
p74
S'InterfaceMembers'
p75
I3
S'p_InterfaceMembers'
p76
S'/home/txema/work/firefox-20.0+build1/dom/bindings/parser/WebIDL.py'
p77
I3028
tp78
a(S'InterfaceMembers -> <empty>'
p79
S'InterfaceMembers'
p80
I0
S'p_InterfaceMembersEmpty'
p81
S'/home/txema/work/firefox-20.0+build1/dom/bindings/parser/WebIDL.py'
p82
I3039
tp83
a(S'InterfaceMember -> Const'
p84
S'InterfaceMember'
p85
I1
S'p_InterfaceMember'
p86
S'/home/txema/work/firefox-20.0+build1/dom/bindings/parser/WebIDL.py'
p87
I3045
tp88
a(S'InterfaceMember -> AttributeOrOperation'
p89
g85
I1
g86
g87
I3046
tp90
a(S'Dictionary -> DICTIONARY IDENTIFIER Inheritance LBRACE DictionaryMembers RBRACE SEMICOLON'
p91
S'Dictionary'
p92
I7
S'p_Dictionary'
p93
S'/home/txema/work/firefox-20.0+build1/dom/bindings/parser/WebIDL.py'
p94
I3052
tp95
a(S'DictionaryMembers -> ExtendedAttributeList DictionaryMember DictionaryMembers'
p96
S'DictionaryMembers'
p97
I3
S'p_DictionaryMembers'
p98
S'/home/txema/work/firefox-20.0+build1/dom/bindings/parser/WebIDL.py'
p99
I3061
tp100
a(S'DictionaryMembers -> <empty>'
p101
g97
I0
g98
g99
I3062
tp102
a(S'DictionaryMember -> Type IDENTIFIER DefaultValue SEMICOLON'
p103
S'DictionaryMember'
p104
I4
S'p_DictionaryMember'
p105
S'/home/txema/work/firefox-20.0+build1/dom/bindings/parser/WebIDL.py'
p106
I3075
tp107
a(S'DefaultValue -> EQUALS ConstValue'
p108
S'DefaultValue'
p109
I2
S'p_DefaultValue'
p110
S'/home/txema/work/firefox-20.0+build1/dom/bindings/parser/WebIDL.py'
p111
I3089
tp112
a(S'DefaultValue -> <empty>'
p113
g109
I0
g110
g111
I3090
tp114
a(S'Exception -> EXCEPTION IDENTIFIER Inheritance LBRACE ExceptionMembers RBRACE SEMICOLON'
p115
S'Exception'
p116
I7
S'p_Exception'
p117
S'/home/txema/work/firefox-20.0+build1/dom/bindings/parser/WebIDL.py'
p118
I3099
tp119
a(S'Enum -> ENUM IDENTIFIER LBRACE EnumValueList RBRACE SEMICOLON'
p120
S'Enum'
p121
I6
S'p_Enum'
p122
S'/home/txema/work/firefox-20.0+build1/dom/bindings/parser/WebIDL.py'
p123
I3105
tp124
a(S'EnumValueList -> STRING EnumValues'
p125
S'EnumValueList'
p126
I2
S'p_EnumValueList'
p127
S'/home/txema/work/firefox-20.0+build1/dom/bindings/parser/WebIDL.py'
p128
I3116
tp129
a(S'EnumValues -> COMMA STRING EnumValues'
p130
S'EnumValues'
p131
I3
S'p_EnumValues'
p132
S'/home/txema/work/firefox-20.0+build1/dom/bindings/parser/WebIDL.py'
p133
I3123
tp134
a(S'EnumValues -> <empty>'
p135
S'EnumValues'
p136
I0
S'p_EnumValuesEmpty'
p137
S'/home/txema/work/firefox-20.0+build1/dom/bindings/parser/WebIDL.py'
p138
I3130
tp139
a(S'CallbackRest -> IDENTIFIER EQUALS ReturnType LPAREN ArgumentList RPAREN SEMICOLON'
p140
S'CallbackRest'
p141
I7
S'p_CallbackRest'
p142
S'/home/txema/work/firefox-20.0+build1/dom/bindings/parser/WebIDL.py'
p143
I3136
tp144
a(S'ExceptionMembers -> ExtendedAttributeList ExceptionMember ExceptionMembers'
p145
S'ExceptionMembers'
p146
I3
S'p_ExceptionMembers'
p147
S'/home/txema/work/firefox-20.0+build1/dom/bindings/parser/WebIDL.py'
p148
I3144
tp149
a(S'ExceptionMembers -> <empty>'
p150
g146
I0
g147
g148
I3145
tp151
a(S'Typedef -> TYPEDEF Type IDENTIFIER SEMICOLON'
p152
S'Typedef'
p153
I4
S'p_Typedef'
p154
S'/home/txema/work/firefox-20.0+build1/dom/bindings/parser/WebIDL.py'
p155
I3151
tp156
a(S'ImplementsStatement -> ScopedName IMPLEMENTS ScopedName SEMICOLON'
p157
S'ImplementsStatement'
p158
I4
S'p_ImplementsStatement'
p159
S'/home/txema/work/firefox-20.0+build1/dom/bindings/parser/WebIDL.py'
p160
I3159
tp161
a(S'Const -> CONST ConstType IDENTIFIER EQUALS ConstValue SEMICOLON'
p162
S'Const'
p163
I6
S'p_Const'
p164
S'/home/txema/work/firefox-20.0+build1/dom/bindings/parser/WebIDL.py'
p165
I3169
tp166
a(S'ConstValue -> BooleanLiteral'
p167
S'ConstValue'
p168
I1
S'p_ConstValueBoolean'
p169
S'/home/txema/work/firefox-20.0+build1/dom/bindings/parser/WebIDL.py'
p170
I3179
tp171
a(S'ConstValue -> INTEGER'
p172
S'ConstValue'
p173
I1
S'p_ConstValueInteger'
p174
S'/home/txema/work/firefox-20.0+build1/dom/bindings/parser/WebIDL.py'
p175
I3187
tp176
a(S'ConstValue -> FLOATLITERAL'
p177
S'ConstValue'
p178
I1
S'p_ConstValueFloat'
p179
S'/home/txema/work/firefox-20.0+build1/dom/bindings/parser/WebIDL.py'
p180
I3201
tp181
a(S'ConstValue -> STRING'
p182
S'ConstValue'
p183
I1
S'p_ConstValueString'
p184
S'/home/txema/work/firefox-20.0+build1/dom/bindings/parser/WebIDL.py'
p185
I3208
tp186
a(S'ConstValue -> NULL'
p187
S'ConstValue'
p188
I1
S'p_ConstValueNull'
p189
S'/home/txema/work/firefox-20.0+build1/dom/bindings/parser/WebIDL.py'
p190
I3216
tp191
a(S'BooleanLiteral -> TRUE'
p192
S'BooleanLiteral'
p193
I1
S'p_BooleanLiteralTrue'
p194
S'/home/txema/work/firefox-20.0+build1/dom/bindings/parser/WebIDL.py'
p195
I3222
tp196
a(S'BooleanLiteral -> FALSE'
p197
S'BooleanLiteral'
p198
I1
S'p_BooleanLiteralFalse'
p199
S'/home/txema/work/firefox-20.0+build1/dom/bindings/parser/WebIDL.py'
p200
I3228
tp201
a(S'AttributeOrOperation -> Attribute'
p202
S'AttributeOrOperation'
p203
I1
S'p_AttributeOrOperation'
p204
S'/home/txema/work/firefox-20.0+build1/dom/bindings/parser/WebIDL.py'
p205
I3234
tp206
a(S'AttributeOrOperation -> Operation'
p207
g203
I1
g204
g205
I3235
tp208
a(S'Attribute -> Qualifier AttributeRest'
p209
S'Attribute'
p210
I2
S'p_AttributeWithQualifier'
p211
S'/home/txema/work/firefox-20.0+build1/dom/bindings/parser/WebIDL.py'
p212
I3241
tp213
a(S'Attribute -> Inherit AttributeRest'
p214
S'Attribute'
p215
I2
S'p_Attribute'
p216
S'/home/txema/work/firefox-20.0+build1/dom/bindings/parser/WebIDL.py'
p217
I3251
tp218
a(S'AttributeRest -> ReadOnly ATTRIBUTE Type IDENTIFIER SEMICOLON'
p219
S'AttributeRest'
p220
I5
S'p_AttributeRest'
p221
S'/home/txema/work/firefox-20.0+build1/dom/bindings/parser/WebIDL.py'
p222
I3258
tp223
a(S'ReadOnly -> READONLY'
p224
S'ReadOnly'
p225
I1
S'p_ReadOnly'
p226
S'/home/txema/work/firefox-20.0+build1/dom/bindings/parser/WebIDL.py'
p227
I3268
tp228
a(S'ReadOnly -> <empty>'
p229
S'ReadOnly'
p230
I0
S'p_ReadOnlyEmpty'
p231
S'/home/txema/work/firefox-20.0+build1/dom/bindings/parser/WebIDL.py'
p232
I3274
tp233
a(S'Inherit -> INHERIT'
p234
S'Inherit'
p235
I1
S'p_Inherit'
p236
S'/home/txema/work/firefox-20.0+build1/dom/bindings/parser/WebIDL.py'
p237
I3280
tp238
a(S'Inherit -> <empty>'
p239
S'Inherit'
p240
I0
S'p_InheritEmpty'
p241
S'/home/txema/work/firefox-20.0+build1/dom/bindings/parser/WebIDL.py'
p242
I3286
tp243
a(S'Operation -> Qualifiers OperationRest'
p244
S'Operation'
p245
I2
S'p_Operation'
p246
S'/home/txema/work/firefox-20.0+build1/dom/bindings/parser/WebIDL.py'
p247
I3292
tp248
a(S'Operation -> STRINGIFIER SEMICOLON'
p249
S'Operation'
p250
I2
S'p_Stringifier'
p251
S'/home/txema/work/firefox-20.0+build1/dom/bindings/parser/WebIDL.py'
p252
I3425
tp253
a(S'Qualifier -> STATIC'
p254
S'Qualifier'
p255
I1
S'p_QualifierStatic'
p256
S'/home/txema/work/firefox-20.0+build1/dom/bindings/parser/WebIDL.py'
p257
I3439
tp258
a(S'Qualifier -> STRINGIFIER'
p259
S'Qualifier'
p260
I1
S'p_QualifierStringifier'
p261
S'/home/txema/work/firefox-20.0+build1/dom/bindings/parser/WebIDL.py'
p262
I3445
tp263
a(S'Qualifiers -> Qualifier'
p264
S'Qualifiers'
p265
I1
S'p_Qualifiers'
p266
S'/home/txema/work/firefox-20.0+build1/dom/bindings/parser/WebIDL.py'
p267
I3451
tp268
a(S'Qualifiers -> Specials'
p269
g265
I1
g266
g267
I3452
tp270
a(S'Specials -> Special Specials'
p271
S'Specials'
p272
I2
S'p_Specials'
p273
S'/home/txema/work/firefox-20.0+build1/dom/bindings/parser/WebIDL.py'
p274
I3458
tp275
a(S'Specials -> <empty>'
p276
S'Specials'
p277
I0
S'p_SpecialsEmpty'
p278
S'/home/txema/work/firefox-20.0+build1/dom/bindings/parser/WebIDL.py'
p279
I3465
tp280
a(S'Special -> GETTER'
p281
S'Special'
p282
I1
S'p_SpecialGetter'
p283
S'/home/txema/work/firefox-20.0+build1/dom/bindings/parser/WebIDL.py'
p284
I3471
tp285
a(S'Special -> SETTER'
p286
S'Special'
p287
I1
S'p_SpecialSetter'
p288
S'/home/txema/work/firefox-20.0+build1/dom/bindings/parser/WebIDL.py'
p289
I3477
tp290
a(S'Special -> CREATOR'
p291
S'Special'
p292
I1
S'p_SpecialCreator'
p293
S'/home/txema/work/firefox-20.0+build1/dom/bindings/parser/WebIDL.py'
p294
I3483
tp295
a(S'Special -> DELETER'
p296
S'Special'
p297
I1
S'p_SpecialDeleter'
p298
S'/home/txema/work/firefox-20.0+build1/dom/bindings/parser/WebIDL.py'
p299
I3489
tp300
a(S'Special -> LEGACYCALLER'
p301
S'Special'
p302
I1
S'p_SpecialLegacyCaller'
p303
S'/home/txema/work/firefox-20.0+build1/dom/bindings/parser/WebIDL.py'
p304
I3495
tp305
a(S'OperationRest -> ReturnType OptionalIdentifier LPAREN ArgumentList RPAREN SEMICOLON'
p306
S'OperationRest'
p307
I6
S'p_OperationRest'
p308
S'/home/txema/work/firefox-20.0+build1/dom/bindings/parser/WebIDL.py'
p309
I3501
tp310
a(S'OptionalIdentifier -> IDENTIFIER'
p311
S'OptionalIdentifier'
p312
I1
S'p_OptionalIdentifier'
p313
S'/home/txema/work/firefox-20.0+build1/dom/bindings/parser/WebIDL.py'
p314
I3507
tp315
a(S'OptionalIdentifier -> <empty>'
p316
S'OptionalIdentifier'
p317
I0
S'p_OptionalIdentifierEmpty'
p318
S'/home/txema/work/firefox-20.0+build1/dom/bindings/parser/WebIDL.py'
p319
I3513
tp320
a(S'ArgumentList -> Argument Arguments'
p321
S'ArgumentList'
p322
I2
S'p_ArgumentList'
p323
S'/home/txema/work/firefox-20.0+build1/dom/bindings/parser/WebIDL.py'
p324
I3519
tp325
a(S'ArgumentList -> <empty>'
p326
S'ArgumentList'
p327
I0
S'p_ArgumentListEmpty'
p328
S'/home/txema/work/firefox-20.0+build1/dom/bindings/parser/WebIDL.py'
p329
I3526
tp330
a(S'Arguments -> COMMA Argument Arguments'
p331
S'Arguments'
p332
I3
S'p_Arguments'
p333
S'/home/txema/work/firefox-20.0+build1/dom/bindings/parser/WebIDL.py'
p334
I3532
tp335
a(S'Arguments -> <empty>'
p336
S'Arguments'
p337
I0
S'p_ArgumentsEmpty'
p338
S'/home/txema/work/firefox-20.0+build1/dom/bindings/parser/WebIDL.py'
p339
I3539
tp340
a(S'Argument -> ExtendedAttributeList Optional Type Ellipsis ArgumentName DefaultValue'
p341
S'Argument'
p342
I6
S'p_Argument'
p343
S'/home/txema/work/firefox-20.0+build1/dom/bindings/parser/WebIDL.py'
p344
I3545
tp345
a(S'ArgumentName -> IDENTIFIER'
p346
S'ArgumentName'
p347
I1
S'p_ArgumentName'
p348
S'/home/txema/work/firefox-20.0+build1/dom/bindings/parser/WebIDL.py'
p349
I3570
tp350
a(S'ArgumentName -> ATTRIBUTE'
p351
g347
I1
g348
g349
I3571
tp352
a(S'ArgumentName -> CALLBACK'
p353
g347
I1
g348
g349
I3572
tp354
a(S'ArgumentName -> CONST'
p355
g347
I1
g348
g349
I3573
tp356
a(S'ArgumentName -> CREATOR'
p357
g347
I1
g348
g349
I3574
tp358
a(S'ArgumentName -> DELETER'
p359
g347
I1
g348
g349
I3575
tp360
a(S'ArgumentName -> DICTIONARY'
p361
g347
I1
g348
g349
I3576
tp362
a(S'ArgumentName -> ENUM'
p363
g347
I1
g348
g349
I3577
tp364
a(S'ArgumentName -> EXCEPTION'
p365
g347
I1
g348
g349
I3578
tp366
a(S'ArgumentName -> GETTER'
p367
g347
I1
g348
g349
I3579
tp368
a(S'ArgumentName -> IMPLEMENTS'
p369
g347
I1
g348
g349
I3580
tp370
a(S'ArgumentName -> INHERIT'
p371
g347
I1
g348
g349
I3581
tp372
a(S'ArgumentName -> INTERFACE'
p373
g347
I1
g348
g349
I3582
tp374
a(S'ArgumentName -> LEGACYCALLER'
p375
g347
I1
g348
g349
I3583
tp376
a(S'ArgumentName -> PARTIAL'
p377
g347
I1
g348
g349
I3584
tp378
a(S'ArgumentName -> SERIALIZER'
p379
g347
I1
g348
g349
I3585
tp380
a(S'ArgumentName -> SETTER'
p381
g347
I1
g348
g349
I3586
tp382
a(S'ArgumentName -> STATIC'
p383
g347
I1
g348
g349
I3587
tp384
a(S'ArgumentName -> STRINGIFIER'
p385
g347
I1
g348
g349
I3588
tp386
a(S'ArgumentName -> TYPEDEF'
p387
g347
I1
g348
g349
I3589
tp388
a(S'ArgumentName -> UNRESTRICTED'
p389
g347
I1
g348
g349
I3590
tp390
a(S'Optional -> OPTIONAL'
p391
S'Optional'
p392
I1
S'p_Optional'
p393
S'/home/txema/work/firefox-20.0+build1/dom/bindings/parser/WebIDL.py'
p394
I3596
tp395
a(S'Optional -> <empty>'
p396
S'Optional'
p397
I0
S'p_OptionalEmpty'
p398
S'/home/txema/work/firefox-20.0+build1/dom/bindings/parser/WebIDL.py'
p399
I3602
tp400
a(S'Ellipsis -> ELLIPSIS'
p401
S'Ellipsis'
p402
I1
S'p_Ellipsis'
p403
S'/home/txema/work/firefox-20.0+build1/dom/bindings/parser/WebIDL.py'
p404
I3608
tp405
a(S'Ellipsis -> <empty>'
p406
S'Ellipsis'
p407
I0
S'p_EllipsisEmpty'
p408
S'/home/txema/work/firefox-20.0+build1/dom/bindings/parser/WebIDL.py'
p409
I3614
tp410
a(S'ExceptionMember -> Const'
p411
S'ExceptionMember'
p412
I1
S'p_ExceptionMember'
p413
S'/home/txema/work/firefox-20.0+build1/dom/bindings/parser/WebIDL.py'
p414
I3620
tp415
a(S'ExceptionMember -> ExceptionField'
p416
g412
I1
g413
g414
I3621
tp417
a(S'ExceptionField -> Type IDENTIFIER SEMICOLON'
p418
S'ExceptionField'
p419
I3
S'p_ExceptionField'
p420
S'/home/txema/work/firefox-20.0+build1/dom/bindings/parser/WebIDL.py'
p421
I3627
tp422
a(S'ExtendedAttributeList -> LBRACKET ExtendedAttribute ExtendedAttributes RBRACKET'
p423
S'ExtendedAttributeList'
p424
I4
S'p_ExtendedAttributeList'
p425
S'/home/txema/work/firefox-20.0+build1/dom/bindings/parser/WebIDL.py'
p426
I3633
tp427
a(S'ExtendedAttributeList -> <empty>'
p428
S'ExtendedAttributeList'
p429
I0
S'p_ExtendedAttributeListEmpty'
p430
S'/home/txema/work/firefox-20.0+build1/dom/bindings/parser/WebIDL.py'
p431
I3641
tp432
a(S'ExtendedAttribute -> ExtendedAttributeNoArgs'
p433
S'ExtendedAttribute'
p434
I1
S'p_ExtendedAttribute'
p435
S'/home/txema/work/firefox-20.0+build1/dom/bindings/parser/WebIDL.py'
p436
I3647
tp437
a(S'ExtendedAttribute -> ExtendedAttributeArgList'
p438
g434
I1
g435
g436
I3648
tp439
a(S'ExtendedAttribute -> ExtendedAttributeIdent'
p440
g434
I1
g435
g436
I3649
tp441
a(S'ExtendedAttribute -> ExtendedAttributeNamedArgList'
p442
g434
I1
g435
g436
I3650
tp443
a(S'ExtendedAttribute -> <empty>'
p444
S'ExtendedAttribute'
p445
I0
S'p_ExtendedAttributeEmpty'
p446
S'/home/txema/work/firefox-20.0+build1/dom/bindings/parser/WebIDL.py'
p447
I3656
tp448
a(S'ExtendedAttributes -> COMMA ExtendedAttribute ExtendedAttributes'
p449
S'ExtendedAttributes'
p450
I3
S'p_ExtendedAttributes'
p451
S'/home/txema/work/firefox-20.0+build1/dom/bindings/parser/WebIDL.py'
p452
I3662
tp453
a(S'ExtendedAttributes -> <empty>'
p454
S'ExtendedAttributes'
p455
I0
S'p_ExtendedAttributesEmpty'
p456
S'/home/txema/work/firefox-20.0+build1/dom/bindings/parser/WebIDL.py'
p457
I3669
tp458
a(S'Other -> INTEGER'
p459
S'Other'
p460
I1
S'p_Other'
p461
S'/home/txema/work/firefox-20.0+build1/dom/bindings/parser/WebIDL.py'
p462
I3675
tp463
a(S'Other -> FLOATLITERAL'
p464
g460
I1
g461
g462
I3676
tp465
a(S'Other -> IDENTIFIER'
p466
g460
I1
g461
g462
I3677
tp467
a(S'Other -> STRING'
p468
g460
I1
g461
g462
I3678
tp469
a(S'Other -> OTHER'
p470
g460
I1
g461
g462
I3679
tp471
a(S'Other -> ELLIPSIS'
p472
g460
I1
g461
g462
I3680
tp473
a(S'Other -> COLON'
p474
g460
I1
g461
g462
I3681
tp475
a(S'Other -> SCOPE'
p476
g460
I1
g461
g462
I3682
tp477
a(S'Other -> SEMICOLON'
p478
g460
I1
g461
g462
I3683
tp479
a(S'Other -> LT'
p480
g460
I1
g461
g462
I3684
tp481
a(S'Other -> EQUALS'
p482
g460
I1
g461
g462
I3685
tp483
a(S'Other -> GT'
p484
g460
I1
g461
g462
I3686
tp485
a(S'Other -> QUESTIONMARK'
p486
g460
I1
g461
g462
I3687
tp487
a(S'Other -> DATE'
p488
g460
I1
g461
g462
I3688
tp489
a(S'Other -> DOMSTRING'
p490
g460
I1
g461
g462
I3689
tp491
a(S'Other -> ANY'
p492
g460
I1
g461
g462
I3690
tp493
a(S'Other -> ATTRIBUTE'
p494
g460
I1
g461
g462
I3691
tp495
a(S'Other -> BOOLEAN'
p496
g460
I1
g461
g462
I3692
tp497
a(S'Other -> BYTE'
p498
g460
I1
g461
g462
I3693
tp499
a(S'Other -> LEGACYCALLER'
p500
g460
I1
g461
g462
I3694
tp501
a(S'Other -> CONST'
p502
g460
I1
g461
g462
I3695
tp503
a(S'Other -> CREATOR'
p504
g460
I1
g461
g462
I3696
tp505
a(S'Other -> DELETER'
p506
g460
I1
g461
g462
I3697
tp507
a(S'Other -> DOUBLE'
p508
g460
I1
g461
g462
I3698
tp509
a(S'Other -> EXCEPTION'
p510
g460
I1
g461
g462
I3699
tp511
a(S'Other -> FALSE'
p512
g460
I1
g461
g462
I3700
tp513
a(S'Other -> FLOAT'
p514
g460
I1
g461
g462
I3701
tp515
a(S'Other -> GETTER'
p516
g460
I1
g461
g462
I3702
tp517
a(S'Other -> IMPLEMENTS'
p518
g460
I1
g461
g462
I3703
tp519
a(S'Other -> INHERIT'
p520
g460
I1
g461
g462
I3704
tp521
a(S'Other -> INTERFACE'
p522
g460
I1
g461
g462
I3705
tp523
a(S'Other -> LONG'
p524
g460
I1
g461
g462
I3706
tp525
a(S'Other -> MODULE'
p526
g460
I1
g461
g462
I3707
tp527
a(S'Other -> NULL'
p528
g460
I1
g461
g462
I3708
tp529
a(S'Other -> OBJECT'
p530
g460
I1
g461
g462
I3709
tp531
a(S'Other -> OCTET'
p532
g460
I1
g461
g462
I3710
tp533
a(S'Other -> OPTIONAL'
p534
g460
I1
g461
g462
I3711
tp535
a(S'Other -> SEQUENCE'
p536
g460
I1
g461
g462
I3712
tp537
a(S'Other -> SETTER'
p538
g460
I1
g461
g462
I3713
tp539
a(S'Other -> SHORT'
p540
g460
I1
g461
g462
I3714
tp541
a(S'Other -> STATIC'
p542
g460
I1
g461
g462
I3715
tp543
a(S'Other -> STRINGIFIER'
p544
g460
I1
g461
g462
I3716
tp545
a(S'Other -> TRUE'
p546
g460
I1
g461
g462
I3717
tp547
a(S'Other -> TYPEDEF'
p548
g460
I1
g461
g462
I3718
tp549
a(S'Other -> UNSIGNED'
p550
g460
I1
g461
g462
I3719
tp551
a(S'Other -> VOID'
p552
g460
I1
g461
g462
I3720
tp553
a(S'OtherOrComma -> Other'
p554
S'OtherOrComma'
p555
I1
S'p_OtherOrComma'
p556
S'/home/txema/work/firefox-20.0+build1/dom/bindings/parser/WebIDL.py'
p557
I3726
tp558
a(S'OtherOrComma -> COMMA'
p559
g555
I1
g556
g557
I3727
tp560
a(S'Type -> SingleType'
p561
S'Type'
p562
I1
S'p_TypeSingleType'
p563
S'/home/txema/work/firefox-20.0+build1/dom/bindings/parser/WebIDL.py'
p564
I3733
tp565
a(S'Type -> UnionType TypeSuffix'
p566
S'Type'
p567
I2
S'p_TypeUnionType'
p568
S'/home/txema/work/firefox-20.0+build1/dom/bindings/parser/WebIDL.py'
p569
I3739
tp570
a(S'SingleType -> NonAnyType'
p571
S'SingleType'
p572
I1
S'p_SingleTypeNonAnyType'
p573
S'/home/txema/work/firefox-20.0+build1/dom/bindings/parser/WebIDL.py'
p574
I3745
tp575
a(S'SingleType -> ANY TypeSuffixStartingWithArray'
p576
S'SingleType'
p577
I2
S'p_SingleTypeAnyType'
p578
S'/home/txema/work/firefox-20.0+build1/dom/bindings/parser/WebIDL.py'
p579
I3751
tp580
a(S'UnionType -> LPAREN UnionMemberType OR UnionMemberType UnionMemberTypes RPAREN'
p581
S'UnionType'
p582
I6
S'p_UnionType'
p583
S'/home/txema/work/firefox-20.0+build1/dom/bindings/parser/WebIDL.py'
p584
I3757
tp585
a(S'UnionMemberType -> NonAnyType'
p586
S'UnionMemberType'
p587
I1
S'p_UnionMemberTypeNonAnyType'
p588
S'/home/txema/work/firefox-20.0+build1/dom/bindings/parser/WebIDL.py'
p589
I3765
tp590
a(S'UnionMemberTypeArrayOfAny -> ANY LBRACKET RBRACKET'
p591
S'UnionMemberTypeArrayOfAny'
p592
I3
S'p_UnionMemberTypeArrayOfAny'
p593
S'/home/txema/work/firefox-20.0+build1/dom/bindings/parser/WebIDL.py'
p594
I3771
tp595
a(S'UnionMemberType -> UnionType TypeSuffix'
p596
S'UnionMemberType'
p597
I2
S'p_UnionMemberType'
p598
S'/home/txema/work/firefox-20.0+build1/dom/bindings/parser/WebIDL.py'
p599
I3778
tp600
a(S'UnionMemberType -> UnionMemberTypeArrayOfAny TypeSuffix'
p601
g597
I2
g598
g599
I3779
tp602
a(S'UnionMemberTypes -> OR UnionMemberType UnionMemberTypes'
p603
S'UnionMemberTypes'
p604
I3
S'p_UnionMemberTypes'
p605
S'/home/txema/work/firefox-20.0+build1/dom/bindings/parser/WebIDL.py'
p606
I3785
tp607
a(S'UnionMemberTypes -> <empty>'
p608
S'UnionMemberTypes'
p609
I0
S'p_UnionMemberTypesEmpty'
p610
S'/home/txema/work/firefox-20.0+build1/dom/bindings/parser/WebIDL.py'
p611
I3792
tp612
a(S'NonAnyType -> PrimitiveOrStringType TypeSuffix'
p613
S'NonAnyType'
p614
I2
S'p_NonAnyType'
p615
S'/home/txema/work/firefox-20.0+build1/dom/bindings/parser/WebIDL.py'
p616
I3798
tp617
a(S'NonAnyType -> ARRAYBUFFER TypeSuffix'
p618
g614
I2
g615
g616
I3799
tp619
a(S'NonAnyType -> OBJECT TypeSuffix'
p620
g614
I2
g615
g616
I3800
tp621
a(S'NonAnyType -> SEQUENCE LT Type GT Null'
p622
S'NonAnyType'
p623
I5
S'p_NonAnyTypeSequenceType'
p624
S'/home/txema/work/firefox-20.0+build1/dom/bindings/parser/WebIDL.py'
p625
I3813
tp626
a(S'NonAnyType -> ScopedName TypeSuffix'
p627
S'NonAnyType'
p628
I2
S'p_NonAnyTypeScopedName'
p629
S'/home/txema/work/firefox-20.0+build1/dom/bindings/parser/WebIDL.py'
p630
I3823
tp631
a(S'NonAnyType -> DATE TypeSuffix'
p632
S'NonAnyType'
p633
I2
S'p_NonAnyTypeDate'
p634
S'/home/txema/work/firefox-20.0+build1/dom/bindings/parser/WebIDL.py'
p635
I3846
tp636
a(S'ConstType -> PrimitiveOrStringType Null'
p637
S'ConstType'
p638
I2
S'p_ConstType'
p639
S'/home/txema/work/firefox-20.0+build1/dom/bindings/parser/WebIDL.py'
p640
I3853
tp641
a(S'ConstType -> IDENTIFIER Null'
p642
S'ConstType'
p643
I2
S'p_ConstTypeIdentifier'
p644
S'/home/txema/work/firefox-20.0+build1/dom/bindings/parser/WebIDL.py'
p645
I3862
tp646
a(S'PrimitiveOrStringType -> UnsignedIntegerType'
p647
S'PrimitiveOrStringType'
p648
I1
S'p_PrimitiveOrStringTypeUint'
p649
S'/home/txema/work/firefox-20.0+build1/dom/bindings/parser/WebIDL.py'
p650
I3873
tp651
a(S'PrimitiveOrStringType -> BOOLEAN'
p652
S'PrimitiveOrStringType'
p653
I1
S'p_PrimitiveOrStringTypeBoolean'
p654
S'/home/txema/work/firefox-20.0+build1/dom/bindings/parser/WebIDL.py'
p655
I3879
tp656
a(S'PrimitiveOrStringType -> BYTE'
p657
S'PrimitiveOrStringType'
p658
I1
S'p_PrimitiveOrStringTypeByte'
p659
S'/home/txema/work/firefox-20.0+build1/dom/bindings/parser/WebIDL.py'
p660
I3885
tp661
a(S'PrimitiveOrStringType -> OCTET'
p662
S'PrimitiveOrStringType'
p663
I1
S'p_PrimitiveOrStringTypeOctet'
p664
S'/home/txema/work/firefox-20.0+build1/dom/bindings/parser/WebIDL.py'
p665
I3891
tp666
a(S'PrimitiveOrStringType -> FLOAT'
p667
S'PrimitiveOrStringType'
p668
I1
S'p_PrimitiveOrStringTypeFloat'
p669
S'/home/txema/work/firefox-20.0+build1/dom/bindings/parser/WebIDL.py'
p670
I3897
tp671
a(S'PrimitiveOrStringType -> UNRESTRICTED FLOAT'
p672
S'PrimitiveOrStringType'
p673
I2
S'p_PrimitiveOrStringTypeUnrestictedFloat'
p674
S'/home/txema/work/firefox-20.0+build1/dom/bindings/parser/WebIDL.py'
p675
I3903
tp676
a(S'PrimitiveOrStringType -> DOUBLE'
p677
S'PrimitiveOrStringType'
p678
I1
S'p_PrimitiveOrStringTypeDouble'
p679
S'/home/txema/work/firefox-20.0+build1/dom/bindings/parser/WebIDL.py'
p680
I3909
tp681
a(S'PrimitiveOrStringType -> UNRESTRICTED DOUBLE'
p682
S'PrimitiveOrStringType'
p683
I2
S'p_PrimitiveOrStringTypeUnrestictedDouble'
p684
S'/home/txema/work/firefox-20.0+build1/dom/bindings/parser/WebIDL.py'
p685
I3915
tp686
a(S'PrimitiveOrStringType -> DOMSTRING'
p687
S'PrimitiveOrStringType'
p688
I1
S'p_PrimitiveOrStringTypeDOMString'
p689
S'/home/txema/work/firefox-20.0+build1/dom/bindings/parser/WebIDL.py'
p690
I3921
tp691
a(S'UnsignedIntegerType -> UNSIGNED IntegerType'
p692
S'UnsignedIntegerType'
p693
I2
S'p_UnsignedIntegerTypeUnsigned'
p694
S'/home/txema/work/firefox-20.0+build1/dom/bindings/parser/WebIDL.py'
p695
I3927
tp696
a(S'UnsignedIntegerType -> IntegerType'
p697
S'UnsignedIntegerType'
p698
I1
S'p_UnsignedIntegerType'
p699
S'/home/txema/work/firefox-20.0+build1/dom/bindings/parser/WebIDL.py'
p700
I3934
tp701
a(S'IntegerType -> SHORT'
p702
S'IntegerType'
p703
I1
S'p_IntegerTypeShort'
p704
S'/home/txema/work/firefox-20.0+build1/dom/bindings/parser/WebIDL.py'
p705
I3940
tp706
a(S'IntegerType -> LONG OptionalLong'
p707
S'IntegerType'
p708
I2
S'p_IntegerTypeLong'
p709
S'/home/txema/work/firefox-20.0+build1/dom/bindings/parser/WebIDL.py'
p710
I3946
tp711
a(S'OptionalLong -> LONG'
p712
S'OptionalLong'
p713
I1
S'p_OptionalLong'
p714
S'/home/txema/work/firefox-20.0+build1/dom/bindings/parser/WebIDL.py'
p715
I3955
tp716
a(S'OptionalLong -> <empty>'
p717
S'OptionalLong'
p718
I0
S'p_OptionalLongEmpty'
p719
S'/home/txema/work/firefox-20.0+build1/dom/bindings/parser/WebIDL.py'
p720
I3961
tp721
a(S'TypeSuffix -> LBRACKET RBRACKET TypeSuffix'
p722
S'TypeSuffix'
p723
I3
S'p_TypeSuffixBrackets'
p724
S'/home/txema/work/firefox-20.0+build1/dom/bindings/parser/WebIDL.py'
p725
I3967
tp726
a(S'TypeSuffix -> QUESTIONMARK TypeSuffixStartingWithArray'
p727
S'TypeSuffix'
p728
I2
S'p_TypeSuffixQMark'
p729
S'/home/txema/work/firefox-20.0+build1/dom/bindings/parser/WebIDL.py'
p730
I3974
tp731
a(S'TypeSuffix -> <empty>'
p732
S'TypeSuffix'
p733
I0
S'p_TypeSuffixEmpty'
p734
S'/home/txema/work/firefox-20.0+build1/dom/bindings/parser/WebIDL.py'
p735
I3981
tp736
a(S'TypeSuffixStartingWithArray -> LBRACKET RBRACKET TypeSuffix'
p737
S'TypeSuffixStartingWithArray'
p738
I3
S'p_TypeSuffixStartingWithArray'
p739
S'/home/txema/work/firefox-20.0+build1/dom/bindings/parser/WebIDL.py'
p740
I3987
tp741
a(S'TypeSuffixStartingWithArray -> <empty>'
p742
S'TypeSuffixStartingWithArray'
p743
I0
S'p_TypeSuffixStartingWithArrayEmpty'
p744
S'/home/txema/work/firefox-20.0+build1/dom/bindings/parser/WebIDL.py'
p745
I3994
tp746
a(S'Null -> QUESTIONMARK'
p747
S'Null'
p748
I1
S'p_Null'
p749
S'/home/txema/work/firefox-20.0+build1/dom/bindings/parser/WebIDL.py'
p750
I4000
tp751
a(S'Null -> <empty>'
p752
g748
I0
g749
g750
I4001
tp753
a(S'ReturnType -> Type'
p754
S'ReturnType'
p755
I1
S'p_ReturnTypeType'
p756
S'/home/txema/work/firefox-20.0+build1/dom/bindings/parser/WebIDL.py'
p757
I4010
tp758
a(S'ReturnType -> VOID'
p759
S'ReturnType'
p760
I1
S'p_ReturnTypeVoid'
p761
S'/home/txema/work/firefox-20.0+build1/dom/bindings/parser/WebIDL.py'
p762
I4016
tp763
a(S'ScopedName -> AbsoluteScopedName'
p764
S'ScopedName'
p765
I1
S'p_ScopedName'
p766
S'/home/txema/work/firefox-20.0+build1/dom/bindings/parser/WebIDL.py'
p767
I4022
tp768
a(S'ScopedName -> RelativeScopedName'
p769
g765
I1
g766
g767
I4023
tp770
a(S'AbsoluteScopedName -> SCOPE IDENTIFIER ScopedNameParts'
p771
S'AbsoluteScopedName'
p772
I3
S'p_AbsoluteScopedName'
p773
S'/home/txema/work/firefox-20.0+build1/dom/bindings/parser/WebIDL.py'
p774
I4029
tp775
a(S'RelativeScopedName -> IDENTIFIER ScopedNameParts'
p776
S'RelativeScopedName'
p777
I2
S'p_RelativeScopedName'
p778
S'/home/txema/work/firefox-20.0+build1/dom/bindings/parser/WebIDL.py'
p779
I4036
tp780
a(S'ScopedNameParts -> SCOPE IDENTIFIER ScopedNameParts'
p781
S'ScopedNameParts'
p782
I3
S'p_ScopedNameParts'
p783
S'/home/txema/work/firefox-20.0+build1/dom/bindings/parser/WebIDL.py'
p784
I4044
tp785
a(S'ScopedNameParts -> <empty>'
p786
S'ScopedNameParts'
p787
I0
S'p_ScopedNamePartsEmpty'
p788
S'/home/txema/work/firefox-20.0+build1/dom/bindings/parser/WebIDL.py'
p789
I4051
tp790
a(S'ExtendedAttributeNoArgs -> IDENTIFIER'
p791
S'ExtendedAttributeNoArgs'
p792
I1
S'p_ExtendedAttributeNoArgs'
p793
S'/home/txema/work/firefox-20.0+build1/dom/bindings/parser/WebIDL.py'
p794
I4057
tp795
a(S'ExtendedAttributeArgList -> IDENTIFIER LPAREN ArgumentList RPAREN'
p796
S'ExtendedAttributeArgList'
p797
I4
S'p_ExtendedAttributeArgList'
p798
S'/home/txema/work/firefox-20.0+build1/dom/bindings/parser/WebIDL.py'
p799
I4063
tp800
a(S'ExtendedAttributeIdent -> IDENTIFIER EQUALS STRING'
p801
S'ExtendedAttributeIdent'
p802
I3
S'p_ExtendedAttributeIdent'
p803
S'/home/txema/work/firefox-20.0+build1/dom/bindings/parser/WebIDL.py'
p804
I4069
tp805
a(S'ExtendedAttributeIdent -> IDENTIFIER EQUALS IDENTIFIER'
p806
g802
I3
g803
g804
I4070
tp807
a(S'ExtendedAttributeNamedArgList -> IDENTIFIER EQUALS IDENTIFIER LPAREN ArgumentList RPAREN'
p808
S'ExtendedAttributeNamedArgList'
p809
I6
S'p_ExtendedAttributeNamedArgList'
p810
S'/home/txema/work/firefox-20.0+build1/dom/bindings/parser/WebIDL.py'
p811
I4076
tp812
a.